Archive member included to satisfy reference by file (symbol)

c:/program files (x86)/gnu tools arm embedded/5.4 2016q3/bin/../lib/gcc/arm-none-eabi/5.4.1/armv7e-m\libgcc.a(_arm_addsubdf3.o)
                              ..\obj\main.o (__aeabi_dadd)
c:/program files (x86)/gnu tools arm embedded/5.4 2016q3/bin/../lib/gcc/arm-none-eabi/5.4.1/armv7e-m\libgcc.a(_arm_muldivdf3.o)
                              ..\obj\wyswietlacz.o (__aeabi_dmul)
c:/program files (x86)/gnu tools arm embedded/5.4 2016q3/bin/../lib/gcc/arm-none-eabi/5.4.1/armv7e-m\libgcc.a(_arm_cmpdf2.o)
                              ..\obj\wyswietlacz.o (__aeabi_dcmplt)
c:/program files (x86)/gnu tools arm embedded/5.4 2016q3/bin/../lib/gcc/arm-none-eabi/5.4.1/armv7e-m\libgcc.a(_arm_fixdfsi.o)
                              ..\obj\wyswietlacz.o (__aeabi_d2iz)
c:/program files (x86)/gnu tools arm embedded/5.4 2016q3/bin/../lib/gcc/arm-none-eabi/5.4.1/armv7e-m\libgcc.a(_arm_truncdfsf2.o)
                              ..\obj\wyswietlacz.o (__aeabi_d2f)
c:/program files (x86)/gnu tools arm embedded/5.4 2016q3/bin/../lib/gcc/arm-none-eabi/5.4.1/armv7e-m\libgcc.a(_arm_cmpsf2.o)
                              ..\obj\funkcje.o (__aeabi_fcmplt)
c:/program files (x86)/gnu tools arm embedded/5.4 2016q3/bin/../lib/gcc/arm-none-eabi/5.4.1/../../../../arm-none-eabi/lib/armv7e-m\libg.a(lib_a-malloc.o)
                              ..\obj\codec.o (malloc)
c:/program files (x86)/gnu tools arm embedded/5.4 2016q3/bin/../lib/gcc/arm-none-eabi/5.4.1/../../../../arm-none-eabi/lib/armv7e-m\libg.a(lib_a-mallocr.o)
                              c:/program files (x86)/gnu tools arm embedded/5.4 2016q3/bin/../lib/gcc/arm-none-eabi/5.4.1/../../../../arm-none-eabi/lib/armv7e-m\libg.a(lib_a-malloc.o) (_malloc_r)
c:/program files (x86)/gnu tools arm embedded/5.4 2016q3/bin/../lib/gcc/arm-none-eabi/5.4.1/../../../../arm-none-eabi/lib/armv7e-m\libg.a(lib_a-mlock.o)
                              c:/program files (x86)/gnu tools arm embedded/5.4 2016q3/bin/../lib/gcc/arm-none-eabi/5.4.1/../../../../arm-none-eabi/lib/armv7e-m\libg.a(lib_a-mallocr.o) (__malloc_lock)
c:/program files (x86)/gnu tools arm embedded/5.4 2016q3/bin/../lib/gcc/arm-none-eabi/5.4.1/../../../../arm-none-eabi/lib/armv7e-m\libg.a(lib_a-sbrkr.o)
                              c:/program files (x86)/gnu tools arm embedded/5.4 2016q3/bin/../lib/gcc/arm-none-eabi/5.4.1/../../../../arm-none-eabi/lib/armv7e-m\libg.a(lib_a-mallocr.o) (_sbrk_r)
c:/program files (x86)/gnu tools arm embedded/5.4 2016q3/bin/../lib/gcc/arm-none-eabi/5.4.1/../../../../arm-none-eabi/lib/armv7e-m\libg.a(lib_a-freer.o)
                              c:/program files (x86)/gnu tools arm embedded/5.4 2016q3/bin/../lib/gcc/arm-none-eabi/5.4.1/../../../../arm-none-eabi/lib/armv7e-m\libg.a(lib_a-malloc.o) (_free_r)
c:/program files (x86)/gnu tools arm embedded/5.4 2016q3/bin/../lib/gcc/arm-none-eabi/5.4.1/../../../../arm-none-eabi/lib/armv7e-m\libg.a(lib_a-impure.o)
                              c:/program files (x86)/gnu tools arm embedded/5.4 2016q3/bin/../lib/gcc/arm-none-eabi/5.4.1/../../../../arm-none-eabi/lib/armv7e-m\libg.a(lib_a-malloc.o) (_impure_ptr)
c:/program files (x86)/gnu tools arm embedded/5.4 2016q3/bin/../lib/gcc/arm-none-eabi/5.4.1/../../../../arm-none-eabi/lib/armv7e-m\libg.a(lib_a-reent.o)
                              c:/program files (x86)/gnu tools arm embedded/5.4 2016q3/bin/../lib/gcc/arm-none-eabi/5.4.1/../../../../arm-none-eabi/lib/armv7e-m\libg.a(lib_a-sbrkr.o) (errno)

Allocating common symbols
Common symbol       size              file

errno               0x4               c:/program files (x86)/gnu tools arm embedded/5.4 2016q3/bin/../lib/gcc/arm-none-eabi/5.4.1/../../../../arm-none-eabi/lib/armv7e-m\libg.a(lib_a-reent.o)
file                0x228             ..\obj\main.o
sample_buffer       0x1000            ..\obj\main.o
funkcja             0x4               ..\obj\wyswietlacz.o
fatfs               0x230             ..\obj\main.o

Discarded input sections

 .text          0x00000000        0x0 ..\obj\stm32f4xx_syscfg.o
 .data          0x00000000        0x0 ..\obj\stm32f4xx_syscfg.o
 .bss           0x00000000        0x0 ..\obj\stm32f4xx_syscfg.o
 .text.SYSCFG_DeInit
                0x00000000       0x1c ..\obj\stm32f4xx_syscfg.o
 .text.SYSCFG_MemoryRemapConfig
                0x00000000       0x20 ..\obj\stm32f4xx_syscfg.o
 .text.SYSCFG_ETH_MediaInterfaceConfig
                0x00000000       0x1c ..\obj\stm32f4xx_syscfg.o
 .text.SYSCFG_CompensationCellCmd
                0x00000000       0x20 ..\obj\stm32f4xx_syscfg.o
 .text.SYSCFG_GetCompensationCellStatus
                0x00000000       0x30 ..\obj\stm32f4xx_syscfg.o
 .text          0x00000000        0x0 ..\obj\delay.o
 .data          0x00000000        0x0 ..\obj\delay.o
 .text          0x00000000        0x0 ..\obj\wyswietlacz.o
 .text          0x00000000        0x0 ..\obj\funkcje.o
 .data          0x00000000        0x0 ..\obj\funkcje.o
 .bss           0x00000000        0x0 ..\obj\funkcje.o
 .text.abs      0x00000000       0x20 ..\obj\funkcje.o
 .text.UstawPort
                0x00000000       0xac ..\obj\funkcje.o
 .text.UstawPWM
                0x00000000      0x100 ..\obj\funkcje.o
 .text.UstawPrzerwanieZewnetrzne
                0x00000000       0x80 ..\obj\funkcje.o
 .text.UstawADC
                0x00000000       0x94 ..\obj\funkcje.o
 .text          0x00000000        0x0 ..\obj\startup_stm32f4xx.o
 .data          0x00000000        0x0 ..\obj\startup_stm32f4xx.o
 .bss           0x00000000        0x0 ..\obj\startup_stm32f4xx.o
 .text          0x00000000        0x0 ..\obj\main.o
 .text          0x00000000        0x0 ..\obj\stm32f4xx_rcc.o
 .bss           0x00000000        0x0 ..\obj\stm32f4xx_rcc.o
 .text.RCC_DeInit
                0x00000000       0x50 ..\obj\stm32f4xx_rcc.o
 .text.RCC_HSEConfig
                0x00000000       0x24 ..\obj\stm32f4xx_rcc.o
 .text.RCC_WaitForHSEStartUp
                0x00000000       0x50 ..\obj\stm32f4xx_rcc.o
 .text.RCC_AdjustHSICalibrationValue
                0x00000000       0x3c ..\obj\stm32f4xx_rcc.o
 .text.RCC_HSICmd
                0x00000000       0x20 ..\obj\stm32f4xx_rcc.o
 .text.RCC_LSEConfig
                0x00000000       0x40 ..\obj\stm32f4xx_rcc.o
 .text.RCC_LSICmd
                0x00000000       0x20 ..\obj\stm32f4xx_rcc.o
 .text.RCC_PLLConfig
                0x00000000       0x3c ..\obj\stm32f4xx_rcc.o
 .text.RCC_PLLCmd
                0x00000000       0x20 ..\obj\stm32f4xx_rcc.o
 .text.RCC_PLLI2SConfig
                0x00000000       0x28 ..\obj\stm32f4xx_rcc.o
 .text.RCC_ClockSecuritySystemCmd
                0x00000000       0x20 ..\obj\stm32f4xx_rcc.o
 .text.RCC_MCO1Config
                0x00000000       0x3c ..\obj\stm32f4xx_rcc.o
 .text.RCC_MCO2Config
                0x00000000       0x3c ..\obj\stm32f4xx_rcc.o
 .text.RCC_SYSCLKConfig
                0x00000000       0x38 ..\obj\stm32f4xx_rcc.o
 .text.RCC_GetSYSCLKSource
                0x00000000       0x1c ..\obj\stm32f4xx_rcc.o
 .text.RCC_HCLKConfig
                0x00000000       0x38 ..\obj\stm32f4xx_rcc.o
 .text.RCC_PCLK1Config
                0x00000000       0x38 ..\obj\stm32f4xx_rcc.o
 .text.RCC_PCLK2Config
                0x00000000       0x38 ..\obj\stm32f4xx_rcc.o
 .text.RCC_RTCCLKConfig
                0x00000000       0x5c ..\obj\stm32f4xx_rcc.o
 .text.RCC_RTCCLKCmd
                0x00000000       0x20 ..\obj\stm32f4xx_rcc.o
 .text.RCC_BackupResetCmd
                0x00000000       0x20 ..\obj\stm32f4xx_rcc.o
 .text.RCC_I2SCLKConfig
                0x00000000       0x1c ..\obj\stm32f4xx_rcc.o
 .text.RCC_AHB2PeriphClockCmd
                0x00000000       0x3c ..\obj\stm32f4xx_rcc.o
 .text.RCC_AHB3PeriphClockCmd
                0x00000000       0x3c ..\obj\stm32f4xx_rcc.o
 .text.RCC_AHB1PeriphResetCmd
                0x00000000       0x3c ..\obj\stm32f4xx_rcc.o
 .text.RCC_AHB2PeriphResetCmd
                0x00000000       0x3c ..\obj\stm32f4xx_rcc.o
 .text.RCC_AHB3PeriphResetCmd
                0x00000000       0x3c ..\obj\stm32f4xx_rcc.o
 .text.RCC_AHB1PeriphClockLPModeCmd
                0x00000000       0x3c ..\obj\stm32f4xx_rcc.o
 .text.RCC_AHB2PeriphClockLPModeCmd
                0x00000000       0x3c ..\obj\stm32f4xx_rcc.o
 .text.RCC_AHB3PeriphClockLPModeCmd
                0x00000000       0x3c ..\obj\stm32f4xx_rcc.o
 .text.RCC_APB1PeriphClockLPModeCmd
                0x00000000       0x3c ..\obj\stm32f4xx_rcc.o
 .text.RCC_APB2PeriphClockLPModeCmd
                0x00000000       0x3c ..\obj\stm32f4xx_rcc.o
 .text.RCC_ITConfig
                0x00000000       0x4c ..\obj\stm32f4xx_rcc.o
 .text.RCC_GetFlagStatus
                0x00000000       0x74 ..\obj\stm32f4xx_rcc.o
 .text.RCC_ClearFlag
                0x00000000       0x1c ..\obj\stm32f4xx_rcc.o
 .text.RCC_GetITStatus
                0x00000000       0x34 ..\obj\stm32f4xx_rcc.o
 .text.RCC_ClearITPendingBit
                0x00000000       0x20 ..\obj\stm32f4xx_rcc.o
 .text          0x00000000        0x0 ..\obj\codec.o
 .bss           0x00000000        0x0 ..\obj\codec.o
 .text          0x00000000        0x0 ..\obj\stm32f4xx_adc.o
 .data          0x00000000        0x0 ..\obj\stm32f4xx_adc.o
 .bss           0x00000000        0x0 ..\obj\stm32f4xx_adc.o
 .text.ADC_DeInit
                0x00000000       0x1c ..\obj\stm32f4xx_adc.o
 .text.ADC_StructInit
                0x00000000       0x3c ..\obj\stm32f4xx_adc.o
 .text.ADC_CommonStructInit
                0x00000000       0x2c ..\obj\stm32f4xx_adc.o
 .text.ADC_AnalogWatchdogCmd
                0x00000000       0x38 ..\obj\stm32f4xx_adc.o
 .text.ADC_AnalogWatchdogThresholdsConfig
                0x00000000       0x28 ..\obj\stm32f4xx_adc.o
 .text.ADC_AnalogWatchdogSingleChannelConfig
                0x00000000       0x38 ..\obj\stm32f4xx_adc.o
 .text.ADC_TempSensorVrefintCmd
                0x00000000       0x38 ..\obj\stm32f4xx_adc.o
 .text.ADC_VBATCmd
                0x00000000       0x38 ..\obj\stm32f4xx_adc.o
 .text.ADC_GetSoftwareStartConvStatus
                0x00000000       0x30 ..\obj\stm32f4xx_adc.o
 .text.ADC_EOCOnEachRegularChannelCmd
                0x00000000       0x38 ..\obj\stm32f4xx_adc.o
 .text.ADC_ContinuousModeCmd
                0x00000000       0x38 ..\obj\stm32f4xx_adc.o
 .text.ADC_DiscModeChannelCountConfig
                0x00000000       0x44 ..\obj\stm32f4xx_adc.o
 .text.ADC_DiscModeCmd
                0x00000000       0x38 ..\obj\stm32f4xx_adc.o
 .text.ADC_GetMultiModeConversionValue
                0x00000000       0x14 ..\obj\stm32f4xx_adc.o
 .text.ADC_DMACmd
                0x00000000       0x38 ..\obj\stm32f4xx_adc.o
 .text.ADC_DMARequestAfterLastTransferCmd
                0x00000000       0x38 ..\obj\stm32f4xx_adc.o
 .text.ADC_MultiModeDMARequestAfterLastTransferCmd
                0x00000000       0x38 ..\obj\stm32f4xx_adc.o
 .text.ADC_InjectedChannelConfig
                0x00000000      0x120 ..\obj\stm32f4xx_adc.o
 .text.ADC_InjectedSequencerLengthConfig
                0x00000000       0x44 ..\obj\stm32f4xx_adc.o
 .text.ADC_SetInjectedOffset
                0x00000000       0x34 ..\obj\stm32f4xx_adc.o
 .text.ADC_ExternalTrigInjectedConvConfig
                0x00000000       0x34 ..\obj\stm32f4xx_adc.o
 .text.ADC_ExternalTrigInjectedConvEdgeConfig
                0x00000000       0x34 ..\obj\stm32f4xx_adc.o
 .text.ADC_SoftwareStartInjectedConv
                0x00000000       0x20 ..\obj\stm32f4xx_adc.o
 .text.ADC_GetSoftwareStartInjectedConvCmdStatus
                0x00000000       0x30 ..\obj\stm32f4xx_adc.o
 .text.ADC_AutoInjectedConvCmd
                0x00000000       0x38 ..\obj\stm32f4xx_adc.o
 .text.ADC_InjectedDiscModeCmd
                0x00000000       0x38 ..\obj\stm32f4xx_adc.o
 .text.ADC_GetInjectedConversionValue
                0x00000000       0x30 ..\obj\stm32f4xx_adc.o
 .text.ADC_ITConfig
                0x00000000       0x50 ..\obj\stm32f4xx_adc.o
 .text.ADC_ClearFlag
                0x00000000       0x20 ..\obj\stm32f4xx_adc.o
 .text.ADC_GetITStatus
                0x00000000       0x5c ..\obj\stm32f4xx_adc.o
 .text.ADC_ClearITPendingBit
                0x00000000       0x2c ..\obj\stm32f4xx_adc.o
 .text          0x00000000        0x0 ..\obj\spi_sd.o
 .text          0x00000000        0x0 ..\obj\stm32f4xx_gpio.o
 .data          0x00000000        0x0 ..\obj\stm32f4xx_gpio.o
 .bss           0x00000000        0x0 ..\obj\stm32f4xx_gpio.o
 .text.GPIO_DeInit
                0x00000000      0x120 ..\obj\stm32f4xx_gpio.o
 .text.GPIO_PinLockConfig
                0x00000000       0x44 ..\obj\stm32f4xx_gpio.o
 .text.GPIO_ReadInputDataBit
                0x00000000       0x34 ..\obj\stm32f4xx_gpio.o
 .text.GPIO_ReadInputData
                0x00000000       0x18 ..\obj\stm32f4xx_gpio.o
 .text.GPIO_ReadOutputDataBit
                0x00000000       0x34 ..\obj\stm32f4xx_gpio.o
 .text.GPIO_ReadOutputData
                0x00000000       0x18 ..\obj\stm32f4xx_gpio.o
 .text.GPIO_WriteBit
                0x00000000       0x30 ..\obj\stm32f4xx_gpio.o
 .text.GPIO_Write
                0x00000000       0x1c ..\obj\stm32f4xx_gpio.o
 .text          0x00000000        0x0 ..\obj\system_stm32f4xx.o
 .data          0x00000000       0x14 ..\obj\system_stm32f4xx.o
 .bss           0x00000000        0x0 ..\obj\system_stm32f4xx.o
 .text.SystemCoreClockUpdate
                0x00000000       0xf8 ..\obj\system_stm32f4xx.o
 .text          0x00000000        0x0 ..\obj\syscalls.o
 .data          0x00000000        0x0 ..\obj\syscalls.o
 .text.link     0x00000000       0x18 ..\obj\syscalls.o
 .text._close   0x00000000       0x18 ..\obj\syscalls.o
 .text._fstat   0x00000000       0x20 ..\obj\syscalls.o
 .text._isatty  0x00000000       0x14 ..\obj\syscalls.o
 .text._lseek   0x00000000       0x18 ..\obj\syscalls.o
 .text._read    0x00000000       0x18 ..\obj\syscalls.o
 .text._write   0x00000000       0x18 ..\obj\syscalls.o
 .text.abort    0x00000000        0x8 ..\obj\syscalls.o
 .text          0x00000000        0x0 ..\obj\stm32f4xx_dma.o
 .data          0x00000000        0x0 ..\obj\stm32f4xx_dma.o
 .bss           0x00000000        0x0 ..\obj\stm32f4xx_dma.o
 .text.DMA_StructInit
                0x00000000       0x6c ..\obj\stm32f4xx_dma.o
 .text.DMA_PeriphIncOffsetSizeConfig
                0x00000000       0x34 ..\obj\stm32f4xx_dma.o
 .text.DMA_FlowControllerConfig
                0x00000000       0x34 ..\obj\stm32f4xx_dma.o
 .text.DMA_SetCurrDataCounter
                0x00000000       0x1c ..\obj\stm32f4xx_dma.o
 .text.DMA_GetCurrDataCounter
                0x00000000       0x18 ..\obj\stm32f4xx_dma.o
 .text.DMA_DoubleBufferModeConfig
                0x00000000       0x3c ..\obj\stm32f4xx_dma.o
 .text.DMA_DoubleBufferModeCmd
                0x00000000       0x38 ..\obj\stm32f4xx_dma.o
 .text.DMA_MemoryTargetConfig
                0x00000000       0x2c ..\obj\stm32f4xx_dma.o
 .text.DMA_GetCurrentMemoryTarget
                0x00000000       0x30 ..\obj\stm32f4xx_dma.o
 .text.DMA_GetCmdStatus
                0x00000000       0x30 ..\obj\stm32f4xx_dma.o
 .text.DMA_GetFIFOStatus
                0x00000000       0x24 ..\obj\stm32f4xx_dma.o
 .text.DMA_ITConfig
                0x00000000       0x74 ..\obj\stm32f4xx_dma.o
 .text.DMA_GetITStatus
                0x00000000       0xac ..\obj\stm32f4xx_dma.o
 .text.DMA_ClearITPendingBit
                0x00000000       0x5c ..\obj\stm32f4xx_dma.o
 .text          0x00000000        0x0 ..\obj\ff.o
 .data          0x00000000        0x0 ..\obj\ff.o
 .text.dir_remove
                0x00000000       0x3c ..\obj\ff.o
 .text.f_write  0x00000000      0x2d4 ..\obj\ff.o
 .text.f_closedir
                0x00000000       0x30 ..\obj\ff.o
 .text.f_stat   0x00000000       0x7c ..\obj\ff.o
 .text.f_getfree
                0x00000000      0x16c ..\obj\ff.o
 .text.f_truncate
                0x00000000      0x128 ..\obj\ff.o
 .text.f_unlink
                0x00000000      0x144 ..\obj\ff.o
 .text.f_mkdir  0x00000000      0x20c ..\obj\ff.o
 .text.f_rename
                0x00000000      0x1c8 ..\obj\ff.o
 .text          0x00000000        0x0 ..\obj\stm32f4xx_spi.o
 .data          0x00000000        0x0 ..\obj\stm32f4xx_spi.o
 .bss           0x00000000        0x0 ..\obj\stm32f4xx_spi.o
 .text.SPI_StructInit
                0x00000000       0x48 ..\obj\stm32f4xx_spi.o
 .text.I2S_StructInit
                0x00000000       0x38 ..\obj\stm32f4xx_spi.o
 .text.SPI_DataSizeConfig
                0x00000000       0x38 ..\obj\stm32f4xx_spi.o
 .text.SPI_BiDirectionalLineConfig
                0x00000000       0x40 ..\obj\stm32f4xx_spi.o
 .text.SPI_NSSInternalSoftwareConfig
                0x00000000       0x44 ..\obj\stm32f4xx_spi.o
 .text.SPI_SSOutputCmd
                0x00000000       0x40 ..\obj\stm32f4xx_spi.o
 .text.SPI_TIModeCmd
                0x00000000       0x40 ..\obj\stm32f4xx_spi.o
 .text.I2S_FullDuplexConfig
                0x00000000       0x9c ..\obj\stm32f4xx_spi.o
 .text.SPI_I2S_ReceiveData
                0x00000000       0x18 ..\obj\stm32f4xx_spi.o
 .text.SPI_I2S_SendData
                0x00000000       0x1c ..\obj\stm32f4xx_spi.o
 .text.SPI_TransmitCRC
                0x00000000       0x24 ..\obj\stm32f4xx_spi.o
 .text.SPI_GetCRC
                0x00000000       0x30 ..\obj\stm32f4xx_spi.o
 .text.SPI_GetCRCPolynomial
                0x00000000       0x18 ..\obj\stm32f4xx_spi.o
 .text.SPI_I2S_ITConfig
                0x00000000       0x60 ..\obj\stm32f4xx_spi.o
 .text.SPI_I2S_GetFlagStatus
                0x00000000       0x38 ..\obj\stm32f4xx_spi.o
 .text.SPI_I2S_ClearFlag
                0x00000000       0x20 ..\obj\stm32f4xx_spi.o
 .text.SPI_I2S_GetITStatus
                0x00000000       0x74 ..\obj\stm32f4xx_spi.o
 .text.SPI_I2S_ClearITPendingBit
                0x00000000       0x34 ..\obj\stm32f4xx_spi.o
 .text          0x00000000        0x0 ..\obj\stm32f4xx_i2c.o
 .data          0x00000000        0x0 ..\obj\stm32f4xx_i2c.o
 .bss           0x00000000        0x0 ..\obj\stm32f4xx_i2c.o
 .text.I2C_StructInit
                0x00000000       0x3c ..\obj\stm32f4xx_i2c.o
 .text.I2C_OwnAddress2Config
                0x00000000       0x44 ..\obj\stm32f4xx_i2c.o
 .text.I2C_DualAddressCmd
                0x00000000       0x40 ..\obj\stm32f4xx_i2c.o
 .text.I2C_GeneralCallCmd
                0x00000000       0x40 ..\obj\stm32f4xx_i2c.o
 .text.I2C_SoftwareResetCmd
                0x00000000       0x44 ..\obj\stm32f4xx_i2c.o
 .text.I2C_StretchClockCmd
                0x00000000       0x40 ..\obj\stm32f4xx_i2c.o
 .text.I2C_FastModeDutyCycleConfig
                0x00000000       0x40 ..\obj\stm32f4xx_i2c.o
 .text.I2C_NACKPositionConfig
                0x00000000       0x40 ..\obj\stm32f4xx_i2c.o
 .text.I2C_SMBusAlertConfig
                0x00000000       0x40 ..\obj\stm32f4xx_i2c.o
 .text.I2C_ARPCmd
                0x00000000       0x40 ..\obj\stm32f4xx_i2c.o
 .text.I2C_TransmitPEC
                0x00000000       0x40 ..\obj\stm32f4xx_i2c.o
 .text.I2C_PECPositionConfig
                0x00000000       0x40 ..\obj\stm32f4xx_i2c.o
 .text.I2C_CalculatePEC
                0x00000000       0x40 ..\obj\stm32f4xx_i2c.o
 .text.I2C_GetPEC
                0x00000000       0x20 ..\obj\stm32f4xx_i2c.o
 .text.I2C_DMACmd
                0x00000000       0x40 ..\obj\stm32f4xx_i2c.o
 .text.I2C_DMALastTransferCmd
                0x00000000       0x40 ..\obj\stm32f4xx_i2c.o
 .text.I2C_ReadRegister
                0x00000000       0x2c ..\obj\stm32f4xx_i2c.o
 .text.I2C_ITConfig
                0x00000000       0x48 ..\obj\stm32f4xx_i2c.o
 .text.I2C_GetLastEvent
                0x00000000       0x44 ..\obj\stm32f4xx_i2c.o
 .text.I2C_ClearFlag
                0x00000000       0x2c ..\obj\stm32f4xx_i2c.o
 .text.I2C_GetITStatus
                0x00000000       0x58 ..\obj\stm32f4xx_i2c.o
 .text.I2C_ClearITPendingBit
                0x00000000       0x2c ..\obj\stm32f4xx_i2c.o
 .text          0x00000000        0x0 ..\obj\stm32f4xx_rng.o
 .data          0x00000000        0x0 ..\obj\stm32f4xx_rng.o
 .bss           0x00000000        0x0 ..\obj\stm32f4xx_rng.o
 .text.RNG_DeInit
                0x00000000       0x18 ..\obj\stm32f4xx_rng.o
 .text.RNG_Cmd  0x00000000       0x38 ..\obj\stm32f4xx_rng.o
 .text.RNG_ITConfig
                0x00000000       0x38 ..\obj\stm32f4xx_rng.o
 .text.RNG_GetFlagStatus
                0x00000000       0x34 ..\obj\stm32f4xx_rng.o
 .text.RNG_ClearFlag
                0x00000000       0x24 ..\obj\stm32f4xx_rng.o
 .text.RNG_GetITStatus
                0x00000000       0x34 ..\obj\stm32f4xx_rng.o
 .text.RNG_ClearITPendingBit
                0x00000000       0x24 ..\obj\stm32f4xx_rng.o
 .text          0x00000000        0x0 ..\obj\stm32f4xx_exti.o
 .data          0x00000000        0x0 ..\obj\stm32f4xx_exti.o
 .bss           0x00000000        0x0 ..\obj\stm32f4xx_exti.o
 .text.EXTI_DeInit
                0x00000000       0x34 ..\obj\stm32f4xx_exti.o
 .text.EXTI_StructInit
                0x00000000       0x2c ..\obj\stm32f4xx_exti.o
 .text.EXTI_GenerateSWInterrupt
                0x00000000       0x24 ..\obj\stm32f4xx_exti.o
 .text.EXTI_GetFlagStatus
                0x00000000       0x34 ..\obj\stm32f4xx_exti.o
 .text.EXTI_ClearFlag
                0x00000000       0x1c ..\obj\stm32f4xx_exti.o
 .text          0x00000000        0x0 ..\obj\misc.o
 .data          0x00000000        0x0 ..\obj\misc.o
 .bss           0x00000000        0x0 ..\obj\misc.o
 .text.NVIC_SetVectorTable
                0x00000000       0x2c ..\obj\misc.o
 .text          0x00000000        0x0 ..\obj\stm32f4xx_rtc.o
 .data          0x00000000        0x0 ..\obj\stm32f4xx_rtc.o
 .bss           0x00000000        0x0 ..\obj\stm32f4xx_rtc.o
 .text.RTC_DeInit
                0x00000000       0xdc ..\obj\stm32f4xx_rtc.o
 .text.RTC_Init
                0x00000000       0x78 ..\obj\stm32f4xx_rtc.o
 .text.RTC_StructInit
                0x00000000       0x24 ..\obj\stm32f4xx_rtc.o
 .text.RTC_WriteProtectionCmd
                0x00000000       0x34 ..\obj\stm32f4xx_rtc.o
 .text.RTC_EnterInitMode
                0x00000000       0x70 ..\obj\stm32f4xx_rtc.o
 .text.RTC_ExitInitMode
                0x00000000       0x1c ..\obj\stm32f4xx_rtc.o
 .text.RTC_WaitForSynchro
                0x00000000       0x74 ..\obj\stm32f4xx_rtc.o
 .text.RTC_RefClockCmd
                0x00000000       0x68 ..\obj\stm32f4xx_rtc.o
 .text.RTC_BypassShadowCmd
                0x00000000       0x4c ..\obj\stm32f4xx_rtc.o
 .text.RTC_SetTime
                0x00000000      0x104 ..\obj\stm32f4xx_rtc.o
 .text.RTC_TimeStructInit
                0x00000000       0x2c ..\obj\stm32f4xx_rtc.o
 .text.RTC_GetTime
                0x00000000       0xa4 ..\obj\stm32f4xx_rtc.o
 .text.RTC_GetSubSecond
                0x00000000       0x24 ..\obj\stm32f4xx_rtc.o
 .text.RTC_SetDate
                0x00000000      0x10c ..\obj\stm32f4xx_rtc.o
 .text.RTC_DateStructInit
                0x00000000       0x2c ..\obj\stm32f4xx_rtc.o
 .text.RTC_GetDate
                0x00000000       0x9c ..\obj\stm32f4xx_rtc.o
 .text.RTC_SetAlarm
                0x00000000      0x138 ..\obj\stm32f4xx_rtc.o
 .text.RTC_AlarmStructInit
                0x00000000       0x3c ..\obj\stm32f4xx_rtc.o
 .text.RTC_GetAlarm
                0x00000000       0xe4 ..\obj\stm32f4xx_rtc.o
 .text.RTC_AlarmCmd
                0x00000000       0x98 ..\obj\stm32f4xx_rtc.o
 .text.RTC_AlarmSubSecondConfig
                0x00000000       0x50 ..\obj\stm32f4xx_rtc.o
 .text.RTC_GetAlarmSubSecond
                0x00000000       0x3c ..\obj\stm32f4xx_rtc.o
 .text.RTC_WakeUpClockConfig
                0x00000000       0x40 ..\obj\stm32f4xx_rtc.o
 .text.RTC_SetWakeUpCounter
                0x00000000       0x30 ..\obj\stm32f4xx_rtc.o
 .text.RTC_GetWakeUpCounter
                0x00000000       0x18 ..\obj\stm32f4xx_rtc.o
 .text.RTC_WakeUpCmd
                0x00000000       0x90 ..\obj\stm32f4xx_rtc.o
 .text.RTC_DayLightSavingConfig
                0x00000000       0x48 ..\obj\stm32f4xx_rtc.o
 .text.RTC_GetStoreOperation
                0x00000000       0x18 ..\obj\stm32f4xx_rtc.o
 .text.RTC_OutputConfig
                0x00000000       0x48 ..\obj\stm32f4xx_rtc.o
 .text.RTC_CoarseCalibConfig
                0x00000000       0x50 ..\obj\stm32f4xx_rtc.o
 .text.RTC_CoarseCalibCmd
                0x00000000       0x68 ..\obj\stm32f4xx_rtc.o
 .text.RTC_CalibOutputCmd
                0x00000000       0x4c ..\obj\stm32f4xx_rtc.o
 .text.RTC_CalibOutputConfig
                0x00000000       0x40 ..\obj\stm32f4xx_rtc.o
 .text.RTC_SmoothCalibConfig
                0x00000000       0x84 ..\obj\stm32f4xx_rtc.o
 .text.RTC_TimeStampCmd
                0x00000000       0x60 ..\obj\stm32f4xx_rtc.o
 .text.RTC_GetTimeStamp
                0x00000000      0x120 ..\obj\stm32f4xx_rtc.o
 .text.RTC_GetTimeStampSubSecond
                0x00000000       0x14 ..\obj\stm32f4xx_rtc.o
 .text.RTC_TamperTriggerConfig
                0x00000000       0x40 ..\obj\stm32f4xx_rtc.o
 .text.RTC_TamperCmd
                0x00000000       0x3c ..\obj\stm32f4xx_rtc.o
 .text.RTC_TamperFilterConfig
                0x00000000       0x30 ..\obj\stm32f4xx_rtc.o
 .text.RTC_TamperSamplingFreqConfig
                0x00000000       0x30 ..\obj\stm32f4xx_rtc.o
 .text.RTC_TamperPinsPrechargeDuration
                0x00000000       0x30 ..\obj\stm32f4xx_rtc.o
 .text.RTC_TimeStampOnTamperDetectionCmd
                0x00000000       0x38 ..\obj\stm32f4xx_rtc.o
 .text.RTC_TamperPullUpCmd
                0x00000000       0x38 ..\obj\stm32f4xx_rtc.o
 .text.RTC_WriteBackupRegister
                0x00000000       0x34 ..\obj\stm32f4xx_rtc.o
 .text.RTC_ReadBackupRegister
                0x00000000       0x2c ..\obj\stm32f4xx_rtc.o
 .text.RTC_TamperPinSelection
                0x00000000       0x30 ..\obj\stm32f4xx_rtc.o
 .text.RTC_TimeStampPinSelection
                0x00000000       0x30 ..\obj\stm32f4xx_rtc.o
 .text.RTC_OutputTypeConfig
                0x00000000       0x30 ..\obj\stm32f4xx_rtc.o
 .text.RTC_SynchroShiftConfig
                0x00000000       0x9c ..\obj\stm32f4xx_rtc.o
 .text.RTC_ITConfig
                0x00000000       0x78 ..\obj\stm32f4xx_rtc.o
 .text.RTC_GetFlagStatus
                0x00000000       0x40 ..\obj\stm32f4xx_rtc.o
 .text.RTC_ClearFlag
                0x00000000       0x30 ..\obj\stm32f4xx_rtc.o
 .text.RTC_GetITStatus
                0x00000000       0x68 ..\obj\stm32f4xx_rtc.o
 .text.RTC_ClearITPendingBit
                0x00000000       0x38 ..\obj\stm32f4xx_rtc.o
 .text.RTC_ByteToBcd2
                0x00000000       0x38 ..\obj\stm32f4xx_rtc.o
 .text.RTC_Bcd2ToByte
                0x00000000       0x38 ..\obj\stm32f4xx_rtc.o
 .debug_info    0x00000000     0x10eb ..\obj\stm32f4xx_rtc.o
 .debug_abbrev  0x00000000      0x1b0 ..\obj\stm32f4xx_rtc.o
 .debug_aranges
                0x00000000      0x1e0 ..\obj\stm32f4xx_rtc.o
 .debug_ranges  0x00000000      0x1d0 ..\obj\stm32f4xx_rtc.o
 .debug_line    0x00000000      0x8b5 ..\obj\stm32f4xx_rtc.o
 .debug_str     0x00000000      0xb66 ..\obj\stm32f4xx_rtc.o
 .comment       0x00000000       0x6f ..\obj\stm32f4xx_rtc.o
 .debug_frame   0x00000000      0x8b0 ..\obj\stm32f4xx_rtc.o
 .ARM.attributes
                0x00000000       0x33 ..\obj\stm32f4xx_rtc.o
 .text          0x00000000        0x0 ..\obj\stm32f4xx_tim.o
 .data          0x00000000        0x0 ..\obj\stm32f4xx_tim.o
 .bss           0x00000000        0x0 ..\obj\stm32f4xx_tim.o
 .text.TIM_DeInit
                0x00000000      0x1c0 ..\obj\stm32f4xx_tim.o
 .text.TIM_TimeBaseStructInit
                0x00000000       0x34 ..\obj\stm32f4xx_tim.o
 .text.TIM_PrescalerConfig
                0x00000000       0x28 ..\obj\stm32f4xx_tim.o
 .text.TIM_CounterModeConfig
                0x00000000       0x38 ..\obj\stm32f4xx_tim.o
 .text.TIM_SetAutoreload
                0x00000000       0x1c ..\obj\stm32f4xx_tim.o
 .text.TIM_GetCounter
                0x00000000       0x18 ..\obj\stm32f4xx_tim.o
 .text.TIM_GetPrescaler
                0x00000000       0x18 ..\obj\stm32f4xx_tim.o
 .text.TIM_UpdateDisableConfig
                0x00000000       0x40 ..\obj\stm32f4xx_tim.o
 .text.TIM_UpdateRequestConfig
                0x00000000       0x40 ..\obj\stm32f4xx_tim.o
 .text.TIM_ARRPreloadConfig
                0x00000000       0x40 ..\obj\stm32f4xx_tim.o
 .text.TIM_SelectOnePulseMode
                0x00000000       0x38 ..\obj\stm32f4xx_tim.o
 .text.TIM_SetClockDivision
                0x00000000       0x38 ..\obj\stm32f4xx_tim.o
 .text.TIM_OC1Init
                0x00000000       0xf4 ..\obj\stm32f4xx_tim.o
 .text.TIM_OC2Init
                0x00000000      0x110 ..\obj\stm32f4xx_tim.o
 .text.TIM_OC3Init
                0x00000000      0x10c ..\obj\stm32f4xx_tim.o
 .text.TIM_OC4Init
                0x00000000       0xcc ..\obj\stm32f4xx_tim.o
 .text.TIM_OCStructInit
                0x00000000       0x44 ..\obj\stm32f4xx_tim.o
 .text.TIM_SelectOCxM
                0x00000000       0xb0 ..\obj\stm32f4xx_tim.o
 .text.TIM_SetCompare1
                0x00000000       0x1c ..\obj\stm32f4xx_tim.o
 .text.TIM_SetCompare2
                0x00000000       0x1c ..\obj\stm32f4xx_tim.o
 .text.TIM_SetCompare3
                0x00000000       0x1c ..\obj\stm32f4xx_tim.o
 .text.TIM_SetCompare4
                0x00000000       0x1c ..\obj\stm32f4xx_tim.o
 .text.TIM_ForcedOC1Config
                0x00000000       0x38 ..\obj\stm32f4xx_tim.o
 .text.TIM_ForcedOC2Config
                0x00000000       0x3c ..\obj\stm32f4xx_tim.o
 .text.TIM_ForcedOC3Config
                0x00000000       0x38 ..\obj\stm32f4xx_tim.o
 .text.TIM_ForcedOC4Config
                0x00000000       0x3c ..\obj\stm32f4xx_tim.o
 .text.TIM_OC1PreloadConfig
                0x00000000       0x38 ..\obj\stm32f4xx_tim.o
 .text.TIM_OC2PreloadConfig
                0x00000000       0x3c ..\obj\stm32f4xx_tim.o
 .text.TIM_OC3PreloadConfig
                0x00000000       0x38 ..\obj\stm32f4xx_tim.o
 .text.TIM_OC4PreloadConfig
                0x00000000       0x3c ..\obj\stm32f4xx_tim.o
 .text.TIM_OC1FastConfig
                0x00000000       0x38 ..\obj\stm32f4xx_tim.o
 .text.TIM_OC2FastConfig
                0x00000000       0x3c ..\obj\stm32f4xx_tim.o
 .text.TIM_OC3FastConfig
                0x00000000       0x38 ..\obj\stm32f4xx_tim.o
 .text.TIM_OC4FastConfig
                0x00000000       0x3c ..\obj\stm32f4xx_tim.o
 .text.TIM_ClearOC1Ref
                0x00000000       0x38 ..\obj\stm32f4xx_tim.o
 .text.TIM_ClearOC2Ref
                0x00000000       0x3c ..\obj\stm32f4xx_tim.o
 .text.TIM_ClearOC3Ref
                0x00000000       0x38 ..\obj\stm32f4xx_tim.o
 .text.TIM_ClearOC4Ref
                0x00000000       0x3c ..\obj\stm32f4xx_tim.o
 .text.TIM_OC1PolarityConfig
                0x00000000       0x38 ..\obj\stm32f4xx_tim.o
 .text.TIM_OC1NPolarityConfig
                0x00000000       0x38 ..\obj\stm32f4xx_tim.o
 .text.TIM_OC2PolarityConfig
                0x00000000       0x3c ..\obj\stm32f4xx_tim.o
 .text.TIM_OC2NPolarityConfig
                0x00000000       0x3c ..\obj\stm32f4xx_tim.o
 .text.TIM_OC3PolarityConfig
                0x00000000       0x3c ..\obj\stm32f4xx_tim.o
 .text.TIM_OC3NPolarityConfig
                0x00000000       0x3c ..\obj\stm32f4xx_tim.o
 .text.TIM_OC4PolarityConfig
                0x00000000       0x3c ..\obj\stm32f4xx_tim.o
 .text.TIM_CCxCmd
                0x00000000       0x54 ..\obj\stm32f4xx_tim.o
 .text.TIM_CCxNCmd
                0x00000000       0x54 ..\obj\stm32f4xx_tim.o
 .text.TIM_ICInit
                0x00000000       0xa8 ..\obj\stm32f4xx_tim.o
 .text.TIM_ICStructInit
                0x00000000       0x30 ..\obj\stm32f4xx_tim.o
 .text.TIM_PWMIConfig
                0x00000000       0xb8 ..\obj\stm32f4xx_tim.o
 .text.TIM_GetCapture1
                0x00000000       0x18 ..\obj\stm32f4xx_tim.o
 .text.TIM_GetCapture2
                0x00000000       0x18 ..\obj\stm32f4xx_tim.o
 .text.TIM_GetCapture3
                0x00000000       0x18 ..\obj\stm32f4xx_tim.o
 .text.TIM_GetCapture4
                0x00000000       0x18 ..\obj\stm32f4xx_tim.o
 .text.TIM_SetIC1Prescaler
                0x00000000       0x38 ..\obj\stm32f4xx_tim.o
 .text.TIM_SetIC2Prescaler
                0x00000000       0x3c ..\obj\stm32f4xx_tim.o
 .text.TIM_SetIC3Prescaler
                0x00000000       0x38 ..\obj\stm32f4xx_tim.o
 .text.TIM_SetIC4Prescaler
                0x00000000       0x3c ..\obj\stm32f4xx_tim.o
 .text.TIM_BDTRConfig
                0x00000000       0x50 ..\obj\stm32f4xx_tim.o
 .text.TIM_BDTRStructInit
                0x00000000       0x3c ..\obj\stm32f4xx_tim.o
 .text.TIM_CtrlPWMOutputs
                0x00000000       0x4c ..\obj\stm32f4xx_tim.o
 .text.TIM_SelectCOM
                0x00000000       0x40 ..\obj\stm32f4xx_tim.o
 .text.TIM_CCPreloadControl
                0x00000000       0x40 ..\obj\stm32f4xx_tim.o
 .text.TIM_GenerateEvent
                0x00000000       0x1c ..\obj\stm32f4xx_tim.o
 .text.TIM_GetFlagStatus
                0x00000000       0x38 ..\obj\stm32f4xx_tim.o
 .text.TIM_ClearFlag
                0x00000000       0x20 ..\obj\stm32f4xx_tim.o
 .text.TIM_DMAConfig
                0x00000000       0x28 ..\obj\stm32f4xx_tim.o
 .text.TIM_DMACmd
                0x00000000       0x48 ..\obj\stm32f4xx_tim.o
 .text.TIM_SelectCCDMA
                0x00000000       0x40 ..\obj\stm32f4xx_tim.o
 .text.TIM_InternalClockConfig
                0x00000000       0x24 ..\obj\stm32f4xx_tim.o
 .text.TIM_ITRxExternalClockConfig
                0x00000000       0x30 ..\obj\stm32f4xx_tim.o
 .text.TIM_TIxExternalClockConfig
                0x00000000       0x5c ..\obj\stm32f4xx_tim.o
 .text.TIM_ETRClockMode1Config
                0x00000000       0x60 ..\obj\stm32f4xx_tim.o
 .text.TIM_ETRClockMode2Config
                0x00000000       0x40 ..\obj\stm32f4xx_tim.o
 .text.TIM_SelectInputTrigger
                0x00000000       0x38 ..\obj\stm32f4xx_tim.o
 .text.TIM_SelectOutputTrigger
                0x00000000       0x38 ..\obj\stm32f4xx_tim.o
 .text.TIM_SelectSlaveMode
                0x00000000       0x38 ..\obj\stm32f4xx_tim.o
 .text.TIM_SelectMasterSlaveMode
                0x00000000       0x38 ..\obj\stm32f4xx_tim.o
 .text.TIM_ETRConfig
                0x00000000       0x54 ..\obj\stm32f4xx_tim.o
 .text.TIM_EncoderInterfaceConfig
                0x00000000       0x98 ..\obj\stm32f4xx_tim.o
 .text.TIM_SelectHallSensor
                0x00000000       0x40 ..\obj\stm32f4xx_tim.o
 .text.TIM_RemapConfig
                0x00000000       0x20 ..\obj\stm32f4xx_tim.o
 .text.TI1_Config
                0x00000000       0x84 ..\obj\stm32f4xx_tim.o
 .text.TI2_Config
                0x00000000       0x98 ..\obj\stm32f4xx_tim.o
 .text.TI3_Config
                0x00000000       0x90 ..\obj\stm32f4xx_tim.o
 .text.TI4_Config
                0x00000000       0x9c ..\obj\stm32f4xx_tim.o
 .data          0x00000000        0x0 c:/program files (x86)/gnu tools arm embedded/5.4 2016q3/bin/../lib/gcc/arm-none-eabi/5.4.1/armv7e-m\libgcc.a(_arm_addsubdf3.o)
 .bss           0x00000000        0x0 c:/program files (x86)/gnu tools arm embedded/5.4 2016q3/bin/../lib/gcc/arm-none-eabi/5.4.1/armv7e-m\libgcc.a(_arm_addsubdf3.o)
 .data          0x00000000        0x0 c:/program files (x86)/gnu tools arm embedded/5.4 2016q3/bin/../lib/gcc/arm-none-eabi/5.4.1/armv7e-m\libgcc.a(_arm_muldivdf3.o)
 .bss           0x00000000        0x0 c:/program files (x86)/gnu tools arm embedded/5.4 2016q3/bin/../lib/gcc/arm-none-eabi/5.4.1/armv7e-m\libgcc.a(_arm_muldivdf3.o)
 .data          0x00000000        0x0 c:/program files (x86)/gnu tools arm embedded/5.4 2016q3/bin/../lib/gcc/arm-none-eabi/5.4.1/armv7e-m\libgcc.a(_arm_cmpdf2.o)
 .bss           0x00000000        0x0 c:/program files (x86)/gnu tools arm embedded/5.4 2016q3/bin/../lib/gcc/arm-none-eabi/5.4.1/armv7e-m\libgcc.a(_arm_cmpdf2.o)
 .data          0x00000000        0x0 c:/program files (x86)/gnu tools arm embedded/5.4 2016q3/bin/../lib/gcc/arm-none-eabi/5.4.1/armv7e-m\libgcc.a(_arm_fixdfsi.o)
 .bss           0x00000000        0x0 c:/program files (x86)/gnu tools arm embedded/5.4 2016q3/bin/../lib/gcc/arm-none-eabi/5.4.1/armv7e-m\libgcc.a(_arm_fixdfsi.o)
 .data          0x00000000        0x0 c:/program files (x86)/gnu tools arm embedded/5.4 2016q3/bin/../lib/gcc/arm-none-eabi/5.4.1/armv7e-m\libgcc.a(_arm_truncdfsf2.o)
 .bss           0x00000000        0x0 c:/program files (x86)/gnu tools arm embedded/5.4 2016q3/bin/../lib/gcc/arm-none-eabi/5.4.1/armv7e-m\libgcc.a(_arm_truncdfsf2.o)
 .data          0x00000000        0x0 c:/program files (x86)/gnu tools arm embedded/5.4 2016q3/bin/../lib/gcc/arm-none-eabi/5.4.1/armv7e-m\libgcc.a(_arm_cmpsf2.o)
 .bss           0x00000000        0x0 c:/program files (x86)/gnu tools arm embedded/5.4 2016q3/bin/../lib/gcc/arm-none-eabi/5.4.1/armv7e-m\libgcc.a(_arm_cmpsf2.o)
 .text          0x00000000        0x0 c:/program files (x86)/gnu tools arm embedded/5.4 2016q3/bin/../lib/gcc/arm-none-eabi/5.4.1/../../../../arm-none-eabi/lib/armv7e-m\libg.a(lib_a-malloc.o)
 .data          0x00000000        0x0 c:/program files (x86)/gnu tools arm embedded/5.4 2016q3/bin/../lib/gcc/arm-none-eabi/5.4.1/../../../../arm-none-eabi/lib/armv7e-m\libg.a(lib_a-malloc.o)
 .bss           0x00000000        0x0 c:/program files (x86)/gnu tools arm embedded/5.4 2016q3/bin/../lib/gcc/arm-none-eabi/5.4.1/../../../../arm-none-eabi/lib/armv7e-m\libg.a(lib_a-malloc.o)
 .text.free     0x00000000       0x10 c:/program files (x86)/gnu tools arm embedded/5.4 2016q3/bin/../lib/gcc/arm-none-eabi/5.4.1/../../../../arm-none-eabi/lib/armv7e-m\libg.a(lib_a-malloc.o)
 .text          0x00000000        0x0 c:/program files (x86)/gnu tools arm embedded/5.4 2016q3/bin/../lib/gcc/arm-none-eabi/5.4.1/../../../../arm-none-eabi/lib/armv7e-m\libg.a(lib_a-mallocr.o)
 .data          0x00000000        0x0 c:/program files (x86)/gnu tools arm embedded/5.4 2016q3/bin/../lib/gcc/arm-none-eabi/5.4.1/../../../../arm-none-eabi/lib/armv7e-m\libg.a(lib_a-mallocr.o)
 .bss           0x00000000        0x0 c:/program files (x86)/gnu tools arm embedded/5.4 2016q3/bin/../lib/gcc/arm-none-eabi/5.4.1/../../../../arm-none-eabi/lib/armv7e-m\libg.a(lib_a-mallocr.o)
 .text          0x00000000        0x0 c:/program files (x86)/gnu tools arm embedded/5.4 2016q3/bin/../lib/gcc/arm-none-eabi/5.4.1/../../../../arm-none-eabi/lib/armv7e-m\libg.a(lib_a-mlock.o)
 .data          0x00000000        0x0 c:/program files (x86)/gnu tools arm embedded/5.4 2016q3/bin/../lib/gcc/arm-none-eabi/5.4.1/../../../../arm-none-eabi/lib/armv7e-m\libg.a(lib_a-mlock.o)
 .bss           0x00000000        0x0 c:/program files (x86)/gnu tools arm embedded/5.4 2016q3/bin/../lib/gcc/arm-none-eabi/5.4.1/../../../../arm-none-eabi/lib/armv7e-m\libg.a(lib_a-mlock.o)
 .text          0x00000000        0x0 c:/program files (x86)/gnu tools arm embedded/5.4 2016q3/bin/../lib/gcc/arm-none-eabi/5.4.1/../../../../arm-none-eabi/lib/armv7e-m\libg.a(lib_a-sbrkr.o)
 .data          0x00000000        0x0 c:/program files (x86)/gnu tools arm embedded/5.4 2016q3/bin/../lib/gcc/arm-none-eabi/5.4.1/../../../../arm-none-eabi/lib/armv7e-m\libg.a(lib_a-sbrkr.o)
 .bss           0x00000000        0x0 c:/program files (x86)/gnu tools arm embedded/5.4 2016q3/bin/../lib/gcc/arm-none-eabi/5.4.1/../../../../arm-none-eabi/lib/armv7e-m\libg.a(lib_a-sbrkr.o)
 .text          0x00000000        0x0 c:/program files (x86)/gnu tools arm embedded/5.4 2016q3/bin/../lib/gcc/arm-none-eabi/5.4.1/../../../../arm-none-eabi/lib/armv7e-m\libg.a(lib_a-freer.o)
 .data          0x00000000        0x0 c:/program files (x86)/gnu tools arm embedded/5.4 2016q3/bin/../lib/gcc/arm-none-eabi/5.4.1/../../../../arm-none-eabi/lib/armv7e-m\libg.a(lib_a-freer.o)
 .bss           0x00000000        0x0 c:/program files (x86)/gnu tools arm embedded/5.4 2016q3/bin/../lib/gcc/arm-none-eabi/5.4.1/../../../../arm-none-eabi/lib/armv7e-m\libg.a(lib_a-freer.o)
 .text          0x00000000        0x0 c:/program files (x86)/gnu tools arm embedded/5.4 2016q3/bin/../lib/gcc/arm-none-eabi/5.4.1/../../../../arm-none-eabi/lib/armv7e-m\libg.a(lib_a-impure.o)
 .data          0x00000000        0x0 c:/program files (x86)/gnu tools arm embedded/5.4 2016q3/bin/../lib/gcc/arm-none-eabi/5.4.1/../../../../arm-none-eabi/lib/armv7e-m\libg.a(lib_a-impure.o)
 .bss           0x00000000        0x0 c:/program files (x86)/gnu tools arm embedded/5.4 2016q3/bin/../lib/gcc/arm-none-eabi/5.4.1/../../../../arm-none-eabi/lib/armv7e-m\libg.a(lib_a-impure.o)
 .rodata._global_impure_ptr
                0x00000000        0x4 c:/program files (x86)/gnu tools arm embedded/5.4 2016q3/bin/../lib/gcc/arm-none-eabi/5.4.1/../../../../arm-none-eabi/lib/armv7e-m\libg.a(lib_a-impure.o)
 .text          0x00000000        0x0 c:/program files (x86)/gnu tools arm embedded/5.4 2016q3/bin/../lib/gcc/arm-none-eabi/5.4.1/../../../../arm-none-eabi/lib/armv7e-m\libg.a(lib_a-reent.o)
 .data          0x00000000        0x0 c:/program files (x86)/gnu tools arm embedded/5.4 2016q3/bin/../lib/gcc/arm-none-eabi/5.4.1/../../../../arm-none-eabi/lib/armv7e-m\libg.a(lib_a-reent.o)
 .bss           0x00000000        0x0 c:/program files (x86)/gnu tools arm embedded/5.4 2016q3/bin/../lib/gcc/arm-none-eabi/5.4.1/../../../../arm-none-eabi/lib/armv7e-m\libg.a(lib_a-reent.o)
 .text.cleanup_glue
                0x00000000       0x1c c:/program files (x86)/gnu tools arm embedded/5.4 2016q3/bin/../lib/gcc/arm-none-eabi/5.4.1/../../../../arm-none-eabi/lib/armv7e-m\libg.a(lib_a-reent.o)
 .text._reclaim_reent
                0x00000000       0x88 c:/program files (x86)/gnu tools arm embedded/5.4 2016q3/bin/../lib/gcc/arm-none-eabi/5.4.1/../../../../arm-none-eabi/lib/armv7e-m\libg.a(lib_a-reent.o)

Memory Configuration

Name             Origin             Length             Attributes
rom              0x08000000         0x00100000         xr
ram              0x20000000         0x00020000         xrw
ram1             0x10000000         0x00010000         xrw
*default*        0x00000000         0xffffffff

Linker script and memory map

                0x20020000                _eram = 0x20020000

.text           0x08000000     0x75bf
 *(.isr_vector)
 .isr_vector    0x08000000      0x188 ..\obj\startup_stm32f4xx.o
                0x08000000                g_pfnVectors
 *(.text*)
 .text.SYSCFG_EXTILineConfig
                0x08000188       0x84 ..\obj\stm32f4xx_syscfg.o
                0x08000188                SYSCFG_EXTILineConfig
 .text.delay_init
                0x0800020c       0x34 ..\obj\delay.o
                0x0800020c                delay_init
 .text.delay_ms
                0x08000240       0x28 ..\obj\delay.o
                0x08000240                delay_ms
 .text.delay_us
                0x08000268       0x5c ..\obj\delay.o
                0x08000268                delay_us
 .text.InicjujWyswietlacz
                0x080002c4       0x60 ..\obj\wyswietlacz.o
                0x080002c4                InicjujWyswietlacz
 .text.PokazKreski
                0x08000324       0x34 ..\obj\wyswietlacz.o
                0x08000324                PokazKreski
 .text.WyswietlLiczbeCalkowita
                0x08000358      0x158 ..\obj\wyswietlacz.o
                0x08000358                WyswietlLiczbeCalkowita
 .text.WyswietlLiczbeRzeczywista
                0x080004b0      0x394 ..\obj\wyswietlacz.o
                0x080004b0                WyswietlLiczbeRzeczywista
 .text.TIM7_IRQHandler
                0x08000844       0x9c ..\obj\wyswietlacz.o
                0x08000844                TIM7_IRQHandler
 .text.absf     0x080008e0       0x2c ..\obj\funkcje.o
                0x080008e0                absf
 .text.UstawTimer
                0x0800090c       0x94 ..\obj\funkcje.o
                0x0800090c                UstawTimer
 .text.UstawPrzerwanie
                0x080009a0       0x3c ..\obj\funkcje.o
                0x080009a0                UstawPrzerwanie
 .text.UstawPrzerwanieTimera
                0x080009dc       0x2c ..\obj\funkcje.o
                0x080009dc                UstawPrzerwanieTimera
 .text.Default_Reset_Handler
                0x08000a08       0x5c ..\obj\startup_stm32f4xx.o
                0x08000a08                Default_Reset_Handler
                0x08000a08                Reset_Handler
 .text.Default_Handler
                0x08000a64        0x8 ..\obj\startup_stm32f4xx.o
                0x08000a64                RTC_Alarm_IRQHandler
                0x08000a64                HASH_RNG_IRQHandler
                0x08000a64                EXTI2_IRQHandler
                0x08000a64                TIM8_CC_IRQHandler
                0x08000a64                DebugMon_Handler
                0x08000a64                TIM1_CC_IRQHandler
                0x08000a64                DMA2_Stream5_IRQHandler
                0x08000a64                HardFault_Handler
                0x08000a64                DMA1_Stream5_IRQHandler
                0x08000a64                PVD_IRQHandler
                0x08000a64                SDIO_IRQHandler
                0x08000a64                TAMP_STAMP_IRQHandler
                0x08000a64                PendSV_Handler
                0x08000a64                NMI_Handler
                0x08000a64                CAN2_RX1_IRQHandler
                0x08000a64                EXTI3_IRQHandler
                0x08000a64                TIM8_TRG_COM_TIM14_IRQHandler
                0x08000a64                TIM1_UP_TIM10_IRQHandler
                0x08000a64                TIM8_UP_TIM13_IRQHandler
                0x08000a64                I2C3_ER_IRQHandler
                0x08000a64                I2C2_EV_IRQHandler
                0x08000a64                DMA1_Stream2_IRQHandler
                0x08000a64                CAN1_RX0_IRQHandler
                0x08000a64                FPU_IRQHandler
                0x08000a64                OTG_HS_WKUP_IRQHandler
                0x08000a64                UsageFault_Handler
                0x08000a64                CAN2_SCE_IRQHandler
                0x08000a64                DMA2_Stream2_IRQHandler
                0x08000a64                SPI1_IRQHandler
                0x08000a64                TIM6_DAC_IRQHandler
                0x08000a64                TIM1_BRK_TIM9_IRQHandler
                0x08000a64                DCMI_IRQHandler
                0x08000a64                CAN2_RX0_IRQHandler
                0x08000a64                DMA2_Stream3_IRQHandler
                0x08000a64                USART6_IRQHandler
                0x08000a64                USART3_IRQHandler
                0x08000a64                CRYP_IRQHandler
                0x08000a64                CAN1_RX1_IRQHandler
                0x08000a64                UART5_IRQHandler
                0x08000a64                DMA2_Stream0_IRQHandler
                0x08000a64                TIM4_IRQHandler
                0x08000a64                I2C1_EV_IRQHandler
                0x08000a64                DMA1_Stream6_IRQHandler
                0x08000a64                DMA1_Stream1_IRQHandler
                0x08000a64                UART4_IRQHandler
                0x08000a64                RCC_IRQHandler
                0x08000a64                TIM8_BRK_TIM12_IRQHandler
                0x08000a64                EXTI15_10_IRQHandler
                0x08000a64                ADC_IRQHandler
                0x08000a64                DMA1_Stream7_IRQHandler
                0x08000a64                CAN2_TX_IRQHandler
                0x08000a64                DMA2_Stream7_IRQHandler
                0x08000a64                I2C3_EV_IRQHandler
                0x08000a64                RTC_WKUP_IRQHandler
                0x08000a64                ETH_WKUP_IRQHandler
                0x08000a64                SPI2_IRQHandler
                0x08000a64                OTG_HS_EP1_IN_IRQHandler
                0x08000a64                MemManage_Handler
                0x08000a64                DMA1_Stream0_IRQHandler
                0x08000a64                CAN1_TX_IRQHandler
                0x08000a64                SVC_Handler
                0x08000a64                EXTI4_IRQHandler
                0x08000a64                FSMC_IRQHandler
                0x08000a64                ETH_IRQHandler
                0x08000a64                OTG_HS_EP1_OUT_IRQHandler
                0x08000a64                WWDG_IRQHandler
                0x08000a64                OTG_FS_WKUP_IRQHandler
                0x08000a64                TIM1_TRG_COM_TIM11_IRQHandler
                0x08000a64                OTG_HS_IRQHandler
                0x08000a64                EXTI1_IRQHandler
                0x08000a64                USART2_IRQHandler
                0x08000a64                I2C2_ER_IRQHandler
                0x08000a64                DMA2_Stream1_IRQHandler
                0x08000a64                CAN1_SCE_IRQHandler
                0x08000a64                FLASH_IRQHandler
                0x08000a64                DMA2_Stream4_IRQHandler
                0x08000a64                BusFault_Handler
                0x08000a64                USART1_IRQHandler
                0x08000a64                OTG_FS_IRQHandler
                0x08000a64                SPI3_IRQHandler
                0x08000a64                DMA1_Stream4_IRQHandler
                0x08000a64                I2C1_ER_IRQHandler
                0x08000a64                DMA2_Stream6_IRQHandler
                0x08000a64                DMA1_Stream3_IRQHandler
 .text.NVIC_SetPriority
                0x08000a6c       0x54 ..\obj\main.o
 .text.SysTick_Config
                0x08000ac0       0x44 ..\obj\main.o
 .text.Init_GPIO
                0x08000b04       0xbc ..\obj\main.o
                0x08000b04                Init_GPIO
 .text.EXTI0_IRQHandler
                0x08000bc0       0x30 ..\obj\main.o
                0x08000bc0                EXTI0_IRQHandler
 .text.EXTI9_5_IRQHandler
                0x08000bf0       0x78 ..\obj\main.o
                0x08000bf0                EXTI9_5_IRQHandler
 .text.TIM2_IRQHandler
                0x08000c68       0x38 ..\obj\main.o
                0x08000c68                TIM2_IRQHandler
 .text.licznik  0x08000ca0       0x14 ..\obj\main.o
                0x08000ca0                licznik
 *fill*         0x08000cb4        0x4 
 .text.TIM3_IRQHandler
                0x08000cb8      0x100 ..\obj\main.o
                0x08000cb8                TIM3_IRQHandler
 .text.TIM5_IRQHandler
                0x08000db8      0x13c ..\obj\main.o
                0x08000db8                TIM5_IRQHandler
 .text.Init_debouncer
                0x08000ef4       0x6c ..\obj\main.o
                0x08000ef4                Init_debouncer
 .text.Init_NVIC_diodes
                0x08000f60       0x6c ..\obj\main.o
                0x08000f60                Init_NVIC_diodes
 .text.Init_NVIC
                0x08000fcc       0x7c ..\obj\main.o
                0x08000fcc                Init_NVIC
 .text.MY_DMA_initM2P
                0x08001048       0x9c ..\obj\main.o
                0x08001048                MY_DMA_initM2P
 .text.TIM2_ADC_init
                0x080010e4       0x70 ..\obj\main.o
                0x080010e4                TIM2_ADC_init
 .text.ADC_conversion
                0x08001154       0x38 ..\obj\main.o
                0x08001154                ADC_conversion
 .text.ADC_init
                0x0800118c       0x74 ..\obj\main.o
                0x0800118c                ADC_init
 .text.read_and_send
                0x08001200       0x90 ..\obj\main.o
                0x08001200                read_and_send
 .text.play_wav
                0x08001290       0xcc ..\obj\main.o
                0x08001290                play_wav
 .text.main     0x0800135c      0x24c ..\obj\main.o
                0x0800135c                main
 .text.SysTick_Handler
                0x080015a8        0xc ..\obj\main.o
                0x080015a8                SysTick_Handler
 .text.RCC_PLLI2SCmd
                0x080015b4       0x20 ..\obj\stm32f4xx_rcc.o
                0x080015b4                RCC_PLLI2SCmd
 .text.RCC_GetClocksFreq
                0x080015d4      0x154 ..\obj\stm32f4xx_rcc.o
                0x080015d4                RCC_GetClocksFreq
 .text.RCC_AHB1PeriphClockCmd
                0x08001728       0x3c ..\obj\stm32f4xx_rcc.o
                0x08001728                RCC_AHB1PeriphClockCmd
 .text.RCC_APB1PeriphClockCmd
                0x08001764       0x3c ..\obj\stm32f4xx_rcc.o
                0x08001764                RCC_APB1PeriphClockCmd
 .text.RCC_APB2PeriphClockCmd
                0x080017a0       0x3c ..\obj\stm32f4xx_rcc.o
                0x080017a0                RCC_APB2PeriphClockCmd
 .text.RCC_APB1PeriphResetCmd
                0x080017dc       0x3c ..\obj\stm32f4xx_rcc.o
                0x080017dc                RCC_APB1PeriphResetCmd
 .text.RCC_APB2PeriphResetCmd
                0x08001818       0x3c ..\obj\stm32f4xx_rcc.o
                0x08001818                RCC_APB2PeriphResetCmd
 .text.add_last
                0x08001854       0x58 ..\obj\codec.o
                0x08001854                add_last
 .text.codec_init
                0x080018ac      0x170 ..\obj\codec.o
                0x080018ac                codec_init
 .text.codec_ctrl_init
                0x08001a1c      0x168 ..\obj\codec.o
                0x08001a1c                codec_ctrl_init
 .text.send_codec_ctrl
                0x08001b84       0xb8 ..\obj\codec.o
                0x08001b84                send_codec_ctrl
 .text.read_codec_register
                0x08001c3c      0x104 ..\obj\codec.o
                0x08001c3c                read_codec_register
 .text.Codec_VolumeCtrl
                0x08001d40       0x4c ..\obj\codec.o
                0x08001d40                Codec_VolumeCtrl
 .text.Codec_WriteRegister
                0x08001d8c      0x140 ..\obj\codec.o
                0x08001d8c                Codec_WriteRegister
 .text.Codec_TIMEOUT_UserCallback
                0x08001ecc        0x8 ..\obj\codec.o
                0x08001ecc                Codec_TIMEOUT_UserCallback
 .text.Codec_PauseResume
                0x08001ed4       0x34 ..\obj\codec.o
                0x08001ed4                Codec_PauseResume
 .text.Codec_Mute
                0x08001f08       0x28 ..\obj\codec.o
                0x08001f08                Codec_Mute
 .text.ADC_Init
                0x08001f30       0xa8 ..\obj\stm32f4xx_adc.o
                0x08001f30                ADC_Init
 .text.ADC_CommonInit
                0x08001fd8       0x50 ..\obj\stm32f4xx_adc.o
                0x08001fd8                ADC_CommonInit
 .text.ADC_Cmd  0x08002028       0x38 ..\obj\stm32f4xx_adc.o
                0x08002028                ADC_Cmd
 .text.ADC_RegularChannelConfig
                0x08002060      0x194 ..\obj\stm32f4xx_adc.o
                0x08002060                ADC_RegularChannelConfig
 .text.ADC_SoftwareStartConv
                0x080021f4       0x20 ..\obj\stm32f4xx_adc.o
                0x080021f4                ADC_SoftwareStartConv
 .text.ADC_GetConversionValue
                0x08002214       0x18 ..\obj\stm32f4xx_adc.o
                0x08002214                ADC_GetConversionValue
 .text.ADC_GetFlagStatus
                0x0800222c       0x34 ..\obj\stm32f4xx_adc.o
                0x0800222c                ADC_GetFlagStatus
 .text.SELECT   0x08002260       0x20 ..\obj\spi_sd.o
 .text.DESELECT
                0x08002280       0x20 ..\obj\spi_sd.o
 .text.SPI_SD_Init
                0x080022a0       0xfc ..\obj\spi_sd.o
                0x080022a0                SPI_SD_Init
 .text.xmit_spi
                0x0800239c       0x4c ..\obj\spi_sd.o
 .text.rcvr_spi
                0x080023e8       0x5c ..\obj\spi_sd.o
 .text.rcvr_spi_m
                0x08002444       0x1c ..\obj\spi_sd.o
 .text.wait_ready
                0x08002460       0x38 ..\obj\spi_sd.o
 .text.power_on
                0x08002498       0x34 ..\obj\spi_sd.o
 .text.power_off
                0x080024cc       0x18 ..\obj\spi_sd.o
 .text.chk_power
                0x080024e4       0x14 ..\obj\spi_sd.o
 .text.rcvr_datablock
                0x080024f8       0x6c ..\obj\spi_sd.o
 .text.xmit_datablock
                0x08002564       0xa8 ..\obj\spi_sd.o
 .text.send_cmd
                0x0800260c       0xa4 ..\obj\spi_sd.o
 .text.disk_initialize
                0x080026b0      0x1d4 ..\obj\spi_sd.o
                0x080026b0                disk_initialize
 .text.disk_status
                0x08002884       0x28 ..\obj\spi_sd.o
                0x08002884                disk_status
 .text.disk_read
                0x080028ac       0xd8 ..\obj\spi_sd.o
                0x080028ac                disk_read
 .text.disk_write
                0x08002984      0x110 ..\obj\spi_sd.o
                0x08002984                disk_write
 .text.disk_ioctl
                0x08002a94      0x260 ..\obj\spi_sd.o
                0x08002a94                disk_ioctl
 .text.disk_timerproc
                0x08002cf4       0x48 ..\obj\spi_sd.o
                0x08002cf4                disk_timerproc
 .text.get_fattime
                0x08002d3c       0x14 ..\obj\spi_sd.o
                0x08002d3c                get_fattime
 .text.GPIO_Init
                0x08002d50      0x11c ..\obj\stm32f4xx_gpio.o
                0x08002d50                GPIO_Init
 .text.GPIO_StructInit
                0x08002e6c       0x34 ..\obj\stm32f4xx_gpio.o
                0x08002e6c                GPIO_StructInit
 .text.GPIO_SetBits
                0x08002ea0       0x1c ..\obj\stm32f4xx_gpio.o
                0x08002ea0                GPIO_SetBits
 .text.GPIO_ResetBits
                0x08002ebc       0x1c ..\obj\stm32f4xx_gpio.o
                0x08002ebc                GPIO_ResetBits
 .text.GPIO_ToggleBits
                0x08002ed8       0x24 ..\obj\stm32f4xx_gpio.o
                0x08002ed8                GPIO_ToggleBits
 .text.GPIO_PinAFConfig
                0x08002efc       0x90 ..\obj\stm32f4xx_gpio.o
                0x08002efc                GPIO_PinAFConfig
 .text.SystemInit
                0x08002f8c       0x5c ..\obj\system_stm32f4xx.o
                0x08002f8c                SystemInit
 .text.SetSysClock
                0x08002fe8       0xf4 ..\obj\system_stm32f4xx.o
 .text._sbrk    0x080030dc       0x3c ..\obj\syscalls.o
                0x080030dc                _sbrk
 .text.DMA_DeInit
                0x08003118      0x1a4 ..\obj\stm32f4xx_dma.o
                0x08003118                DMA_DeInit
 .text.DMA_Init
                0x080032bc       0xac ..\obj\stm32f4xx_dma.o
                0x080032bc                DMA_Init
 .text.DMA_Cmd  0x08003368       0x38 ..\obj\stm32f4xx_dma.o
                0x08003368                DMA_Cmd
 .text.DMA_GetFlagStatus
                0x080033a0       0x74 ..\obj\stm32f4xx_dma.o
                0x080033a0                DMA_GetFlagStatus
 .text.DMA_ClearFlag
                0x08003414       0x5c ..\obj\stm32f4xx_dma.o
                0x08003414                DMA_ClearFlag
 .text.ld_word  0x08003470       0x30 ..\obj\ff.o
 .text.ld_dword
                0x080034a0       0x44 ..\obj\ff.o
 .text.st_word  0x080034e4       0x34 ..\obj\ff.o
 .text.st_dword
                0x08003518       0x58 ..\obj\ff.o
 .text.mem_cpy  0x08003570       0x40 ..\obj\ff.o
 .text.mem_set  0x080035b0       0x34 ..\obj\ff.o
 .text.mem_cmp  0x080035e4       0x4c ..\obj\ff.o
 .text.chk_chr  0x08003630       0x34 ..\obj\ff.o
 .text.sync_window
                0x08003664       0x88 ..\obj\ff.o
 .text.move_window
                0x080036ec       0x5c ..\obj\ff.o
 .text.sync_fs  0x08003748       0xdc ..\obj\ff.o
 .text.clust2sect
                0x08003824       0x3c ..\obj\ff.o
 .text.get_fat  0x08003860      0x148 ..\obj\ff.o
 .text.put_fat  0x080039a8      0x1c4 ..\obj\ff.o
 .text.remove_chain
                0x08003b6c       0xc8 ..\obj\ff.o
 .text.create_chain
                0x08003c34      0x130 ..\obj\ff.o
 .text.dir_sdi  0x08003d64       0xf8 ..\obj\ff.o
 .text.dir_next
                0x08003e5c      0x188 ..\obj\ff.o
 .text.dir_alloc
                0x08003fe4       0x90 ..\obj\ff.o
 .text.ld_clust
                0x08004074       0x40 ..\obj\ff.o
 .text.st_clust
                0x080040b4       0x40 ..\obj\ff.o
 .text.dir_read
                0x080040f4       0xbc ..\obj\ff.o
 .text.dir_find
                0x080041b0       0xac ..\obj\ff.o
 .text.dir_register
                0x0800425c       0x64 ..\obj\ff.o
 .text.get_fileinfo
                0x080042c0       0xc8 ..\obj\ff.o
 .text.create_name
                0x08004388      0x188 ..\obj\ff.o
 .text.follow_path
                0x08004510       0xe4 ..\obj\ff.o
 .text.get_ldnumber
                0x080045f4       0x88 ..\obj\ff.o
 .text.check_fs
                0x0800467c       0x88 ..\obj\ff.o
 .text.find_volume
                0x08004704      0x494 ..\obj\ff.o
 .text.validate
                0x08004b98       0x6c ..\obj\ff.o
 .text.f_mount  0x08004c04       0x88 ..\obj\ff.o
                0x08004c04                f_mount
 .text.f_open   0x08004c8c      0x238 ..\obj\ff.o
                0x08004c8c                f_open
 .text.f_read   0x08004ec4      0x268 ..\obj\ff.o
                0x08004ec4                f_read
 .text.f_sync   0x0800512c       0xfc ..\obj\ff.o
                0x0800512c                f_sync
 .text.f_close  0x08005228       0x40 ..\obj\ff.o
                0x08005228                f_close
 .text.f_lseek  0x08005268      0x25c ..\obj\ff.o
                0x08005268                f_lseek
 .text.f_opendir
                0x080054c4       0xc0 ..\obj\ff.o
                0x080054c4                f_opendir
 .text.f_readdir
                0x08005584       0x80 ..\obj\ff.o
                0x08005584                f_readdir
 .text.SPI_I2S_DeInit
                0x08005604       0x74 ..\obj\stm32f4xx_spi.o
                0x08005604                SPI_I2S_DeInit
 .text.SPI_Init
                0x08005678       0x88 ..\obj\stm32f4xx_spi.o
                0x08005678                SPI_Init
 .text.I2S_Init
                0x08005700      0x1b4 ..\obj\stm32f4xx_spi.o
                0x08005700                I2S_Init
 .text.SPI_Cmd  0x080058b4       0x40 ..\obj\stm32f4xx_spi.o
                0x080058b4                SPI_Cmd
 .text.I2S_Cmd  0x080058f4       0x40 ..\obj\stm32f4xx_spi.o
                0x080058f4                I2S_Cmd
 .text.SPI_CalculateCRC
                0x08005934       0x40 ..\obj\stm32f4xx_spi.o
                0x08005934                SPI_CalculateCRC
 .text.SPI_I2S_DMACmd
                0x08005974       0x48 ..\obj\stm32f4xx_spi.o
                0x08005974                SPI_I2S_DMACmd
 .text.I2C_DeInit
                0x080059bc       0x74 ..\obj\stm32f4xx_i2c.o
                0x080059bc                I2C_DeInit
 .text.I2C_Init
                0x08005a30      0x184 ..\obj\stm32f4xx_i2c.o
                0x08005a30                I2C_Init
 .text.I2C_Cmd  0x08005bb4       0x40 ..\obj\stm32f4xx_i2c.o
                0x08005bb4                I2C_Cmd
 .text.I2C_GenerateSTART
                0x08005bf4       0x40 ..\obj\stm32f4xx_i2c.o
                0x08005bf4                I2C_GenerateSTART
 .text.I2C_GenerateSTOP
                0x08005c34       0x40 ..\obj\stm32f4xx_i2c.o
                0x08005c34                I2C_GenerateSTOP
 .text.I2C_Send7bitAddress
                0x08005c74       0x3c ..\obj\stm32f4xx_i2c.o
                0x08005c74                I2C_Send7bitAddress
 .text.I2C_AcknowledgeConfig
                0x08005cb0       0x40 ..\obj\stm32f4xx_i2c.o
                0x08005cb0                I2C_AcknowledgeConfig
 .text.I2C_SendData
                0x08005cf0       0x20 ..\obj\stm32f4xx_i2c.o
                0x08005cf0                I2C_SendData
 .text.I2C_ReceiveData
                0x08005d10       0x1c ..\obj\stm32f4xx_i2c.o
                0x08005d10                I2C_ReceiveData
 .text.I2C_CheckEvent
                0x08005d2c       0x60 ..\obj\stm32f4xx_i2c.o
                0x08005d2c                I2C_CheckEvent
 .text.I2C_GetFlagStatus
                0x08005d8c       0x64 ..\obj\stm32f4xx_i2c.o
                0x08005d8c                I2C_GetFlagStatus
 .text.RNG_GetRandomNumber
                0x08005df0       0x14 ..\obj\stm32f4xx_rng.o
                0x08005df0                RNG_GetRandomNumber
 .text.EXTI_Init
                0x08005e04       0xe4 ..\obj\stm32f4xx_exti.o
                0x08005e04                EXTI_Init
 .text.EXTI_GetITStatus
                0x08005ee8       0x48 ..\obj\stm32f4xx_exti.o
                0x08005ee8                EXTI_GetITStatus
 .text.EXTI_ClearITPendingBit
                0x08005f30       0x1c ..\obj\stm32f4xx_exti.o
                0x08005f30                EXTI_ClearITPendingBit
 .text.NVIC_PriorityGroupConfig
                0x08005f4c       0x24 ..\obj\misc.o
                0x08005f4c                NVIC_PriorityGroupConfig
 .text.NVIC_Init
                0x08005f70       0xc0 ..\obj\misc.o
                0x08005f70                NVIC_Init
 .text.NVIC_SystemLPConfig
                0x08006030       0x40 ..\obj\misc.o
                0x08006030                NVIC_SystemLPConfig
 .text.SysTick_CLKSourceConfig
                0x08006070       0x38 ..\obj\misc.o
                0x08006070                SysTick_CLKSourceConfig
 .text.TIM_TimeBaseInit
                0x080060a8       0xd4 ..\obj\stm32f4xx_tim.o
                0x080060a8                TIM_TimeBaseInit
 .text.TIM_SetCounter
                0x0800617c       0x1c ..\obj\stm32f4xx_tim.o
                0x0800617c                TIM_SetCounter
 .text.TIM_Cmd  0x08006198       0x40 ..\obj\stm32f4xx_tim.o
                0x08006198                TIM_Cmd
 .text.TIM_ITConfig
                0x080061d8       0x48 ..\obj\stm32f4xx_tim.o
                0x080061d8                TIM_ITConfig
 .text.TIM_GetITStatus
                0x08006220       0x54 ..\obj\stm32f4xx_tim.o
                0x08006220                TIM_GetITStatus
 .text.TIM_ClearITPendingBit
                0x08006274       0x20 ..\obj\stm32f4xx_tim.o
                0x08006274                TIM_ClearITPendingBit
 .text          0x08006294      0x370 c:/program files (x86)/gnu tools arm embedded/5.4 2016q3/bin/../lib/gcc/arm-none-eabi/5.4.1/armv7e-m\libgcc.a(_arm_addsubdf3.o)
                0x08006294                __aeabi_drsub
                0x0800629c                __aeabi_dsub
                0x0800629c                __subdf3
                0x080062a0                __aeabi_dadd
                0x080062a0                __adddf3
                0x08006518                __floatunsidf
                0x08006518                __aeabi_ui2d
                0x08006538                __floatsidf
                0x08006538                __aeabi_i2d
                0x0800655c                __aeabi_f2d
                0x0800655c                __extendsfdf2
                0x08006598                __floatundidf
                0x08006598                __aeabi_ul2d
                0x080065a8                __floatdidf
                0x080065a8                __aeabi_l2d
 .text          0x08006604      0x424 c:/program files (x86)/gnu tools arm embedded/5.4 2016q3/bin/../lib/gcc/arm-none-eabi/5.4.1/armv7e-m\libgcc.a(_arm_muldivdf3.o)
                0x08006604                __aeabi_dmul
                0x08006604                __muldf3
                0x08006858                __divdf3
                0x08006858                __aeabi_ddiv
 .text          0x08006a28      0x110 c:/program files (x86)/gnu tools arm embedded/5.4 2016q3/bin/../lib/gcc/arm-none-eabi/5.4.1/armv7e-m\libgcc.a(_arm_cmpdf2.o)
                0x08006a28                __gtdf2
                0x08006a28                __gedf2
                0x08006a30                __ltdf2
                0x08006a30                __ledf2
                0x08006a38                __nedf2
                0x08006a38                __eqdf2
                0x08006a38                __cmpdf2
                0x08006ab4                __aeabi_cdrcmple
                0x08006ac4                __aeabi_cdcmpeq
                0x08006ac4                __aeabi_cdcmple
                0x08006ad4                __aeabi_dcmpeq
                0x08006ae8                __aeabi_dcmplt
                0x08006afc                __aeabi_dcmple
                0x08006b10                __aeabi_dcmpge
                0x08006b24                __aeabi_dcmpgt
 .text          0x08006b38       0x50 c:/program files (x86)/gnu tools arm embedded/5.4 2016q3/bin/../lib/gcc/arm-none-eabi/5.4.1/armv7e-m\libgcc.a(_arm_fixdfsi.o)
                0x08006b38                __aeabi_d2iz
                0x08006b38                __fixdfsi
 .text          0x08006b88       0xa0 c:/program files (x86)/gnu tools arm embedded/5.4 2016q3/bin/../lib/gcc/arm-none-eabi/5.4.1/armv7e-m\libgcc.a(_arm_truncdfsf2.o)
                0x08006b88                __truncdfsf2
                0x08006b88                __aeabi_d2f
 .text          0x08006c28       0xec c:/program files (x86)/gnu tools arm embedded/5.4 2016q3/bin/../lib/gcc/arm-none-eabi/5.4.1/armv7e-m\libgcc.a(_arm_cmpsf2.o)
                0x08006c28                __gesf2
                0x08006c28                __gtsf2
                0x08006c30                __lesf2
                0x08006c30                __ltsf2
                0x08006c38                __nesf2
                0x08006c38                __eqsf2
                0x08006c38                __cmpsf2
                0x08006c98                __aeabi_cfrcmple
                0x08006ca0                __aeabi_cfcmpeq
                0x08006ca0                __aeabi_cfcmple
                0x08006cb0                __aeabi_fcmpeq
                0x08006cc4                __aeabi_fcmplt
                0x08006cd8                __aeabi_fcmple
                0x08006cec                __aeabi_fcmpge
                0x08006d00                __aeabi_fcmpgt
 .text.malloc   0x08006d14       0x10 c:/program files (x86)/gnu tools arm embedded/5.4 2016q3/bin/../lib/gcc/arm-none-eabi/5.4.1/../../../../arm-none-eabi/lib/armv7e-m\libg.a(lib_a-malloc.o)
                0x08006d14                malloc
 .text._malloc_r
                0x08006d24      0x570 c:/program files (x86)/gnu tools arm embedded/5.4 2016q3/bin/../lib/gcc/arm-none-eabi/5.4.1/../../../../arm-none-eabi/lib/armv7e-m\libg.a(lib_a-mallocr.o)
                0x08006d24                _malloc_r
 .text.__malloc_lock
                0x08007294        0x4 c:/program files (x86)/gnu tools arm embedded/5.4 2016q3/bin/../lib/gcc/arm-none-eabi/5.4.1/../../../../arm-none-eabi/lib/armv7e-m\libg.a(lib_a-mlock.o)
                0x08007294                __malloc_lock
 .text.__malloc_unlock
                0x08007298        0x4 c:/program files (x86)/gnu tools arm embedded/5.4 2016q3/bin/../lib/gcc/arm-none-eabi/5.4.1/../../../../arm-none-eabi/lib/armv7e-m\libg.a(lib_a-mlock.o)
                0x08007298                __malloc_unlock
 .text._sbrk_r  0x0800729c       0x24 c:/program files (x86)/gnu tools arm embedded/5.4 2016q3/bin/../lib/gcc/arm-none-eabi/5.4.1/../../../../arm-none-eabi/lib/armv7e-m\libg.a(lib_a-sbrkr.o)
                0x0800729c                _sbrk_r
 .text._malloc_trim_r
                0x080072c0       0x9c c:/program files (x86)/gnu tools arm embedded/5.4 2016q3/bin/../lib/gcc/arm-none-eabi/5.4.1/../../../../arm-none-eabi/lib/armv7e-m\libg.a(lib_a-freer.o)
                0x080072c0                _malloc_trim_r
 .text._free_r  0x0800735c      0x1d0 c:/program files (x86)/gnu tools arm embedded/5.4 2016q3/bin/../lib/gcc/arm-none-eabi/5.4.1/../../../../arm-none-eabi/lib/armv7e-m\libg.a(lib_a-freer.o)
                0x0800735c                _free_r
 *(.init)
 *(.fini)
 *crtbegin.o(.ctors)
 *crtbegin?.o(.ctors)
 *(EXCLUDE_FILE(*crtend.o *crtend?.o) .ctors)
 *(SORT(.ctors.*))
 *(.ctors)
 *crtbegin.o(.dtors)
 *crtbegin?.o(.dtors)
 *(EXCLUDE_FILE(*crtend.o *crtend?.o) .dtors)
 *(SORT(.dtors.*))
 *(.dtors)
 *(.rodata*)
 .rodata        0x0800752c        0x2 ..\obj\main.o
 *fill*         0x0800752e        0x2 
 .rodata        0x08007530       0x8f ..\obj\ff.o
 *(.eh_fram e*)

.glue_7         0x080075c0        0x0
 .glue_7        0x080075c0        0x0 linker stubs

.glue_7t        0x080075c0        0x0
 .glue_7t       0x080075c0        0x0 linker stubs

.vfp11_veneer   0x080075c0        0x0
 .vfp11_veneer  0x080075c0        0x0 linker stubs

.v4_bx          0x080075c0        0x0
 .v4_bx         0x080075c0        0x0 linker stubs

.iplt           0x080075c0        0x0
 .iplt          0x080075c0        0x0 ..\obj\stm32f4xx_syscfg.o

.rel.dyn        0x080075c0        0x0
 .rel.iplt      0x080075c0        0x0 ..\obj\stm32f4xx_syscfg.o

.ARM.extab
 *(.ARM.extab* .gnu.linkonce.armextab.*)
                0x080075c0                __exidx_start = .

.ARM.exidx
 *(.ARM.exidx* .gnu.linkonce.armexidx.*)
                0x080075c0                __exidx_end = .
                0x080075c0                __etext = .
                0x080075bf                _sidata = __etext

.data           0x20000000      0x8c4 load address 0x080075bf
                0x20000000                __data_start__ = .
                0x20000000                _sdata = __data_start__
 *(vtable)
 *(.data*)
 .data          0x20000000       0x6c ..\obj\wyswietlacz.o
                0x20000000                cyfry
                0x2000004c                numery_cyfr
                0x2000005c                cyfry_wyswietl
 .data          0x2000006c        0x1 ..\obj\main.o
                0x2000006c                num_of_switch
 *fill*         0x2000006d        0x3 
 .data          0x20000070       0x10 ..\obj\stm32f4xx_rcc.o
 .data          0x20000080        0x4 ..\obj\codec.o
                0x20000080                CODECTimeout
 .data          0x20000084        0x1 ..\obj\spi_sd.o
 *fill*         0x20000085        0x3 
 .data.__malloc_av_
                0x20000088      0x408 c:/program files (x86)/gnu tools arm embedded/5.4 2016q3/bin/../lib/gcc/arm-none-eabi/5.4.1/../../../../arm-none-eabi/lib/armv7e-m\libg.a(lib_a-mallocr.o)
                0x20000088                __malloc_av_
 .data.__malloc_trim_threshold
                0x20000490        0x4 c:/program files (x86)/gnu tools arm embedded/5.4 2016q3/bin/../lib/gcc/arm-none-eabi/5.4.1/../../../../arm-none-eabi/lib/armv7e-m\libg.a(lib_a-mallocr.o)
                0x20000490                __malloc_trim_threshold
 .data.__malloc_sbrk_base
                0x20000494        0x4 c:/program files (x86)/gnu tools arm embedded/5.4 2016q3/bin/../lib/gcc/arm-none-eabi/5.4.1/../../../../arm-none-eabi/lib/armv7e-m\libg.a(lib_a-mallocr.o)
                0x20000494                __malloc_sbrk_base
 .data.impure_data
                0x20000498      0x428 c:/program files (x86)/gnu tools arm embedded/5.4 2016q3/bin/../lib/gcc/arm-none-eabi/5.4.1/../../../../arm-none-eabi/lib/armv7e-m\libg.a(lib_a-impure.o)
 .data._impure_ptr
                0x200008c0        0x4 c:/program files (x86)/gnu tools arm embedded/5.4 2016q3/bin/../lib/gcc/arm-none-eabi/5.4.1/../../../../arm-none-eabi/lib/armv7e-m\libg.a(lib_a-impure.o)
                0x200008c0                _impure_ptr
                0x200008c4                . = ALIGN (0x4)
                [!provide]                PROVIDE (__preinit_array_start, .)
 *(.preinit_array)
                [!provide]                PROVIDE (__preinit_array_end, .)
                0x200008c4                . = ALIGN (0x4)
                [!provide]                PROVIDE (__init_array_start, .)
 *(SORT(.init_array.*))
 *(.init_array)
                [!provide]                PROVIDE (__init_array_end, .)
                0x200008c4                . = ALIGN (0x4)
                [!provide]                PROVIDE (__fini_array_start, .)
 *(SORT(.fini_array.*))
 *(.fini_array)
                [!provide]                PROVIDE (__fini_array_end, .)
 *(.jcr*)
                0x200008c4                . = ALIGN (0x4)
                0x200008c4                __data_end__ = .
                0x200008c4                _edata = __data_end__

.igot.plt       0x200008c4        0x0 load address 0x08007e84
 .igot.plt      0x200008c4        0x0 ..\obj\stm32f4xx_syscfg.o

.bss            0x200008c8     0x14c8 load address 0x08007e88
                0x200008c8                . = ALIGN (0x4)
                0x200008c8                __bss_start__ = .
                0x200008c8                _sbss = __bss_start__
 *(.bss*)
 .bss           0x200008c8        0x1 ..\obj\delay.o
 *fill*         0x200008c9        0x3 
 .bss           0x200008cc        0xc ..\obj\wyswietlacz.o
                0x200008cc                okres_f
                0x200008d0                ilosc
                0x200008d4                id
 .bss           0x200008d8       0x12 ..\obj\main.o
                0x200008d8                result_of_conversion
                0x200008da                diode_state
                0x200008db                change_song
                0x200008dc                error_state
                0x200008dd                random_mode
                0x200008e0                czas
                0x200008e8                pause
                0x200008e9                half_second
 .bss           0x200008ea        0x4 ..\obj\spi_sd.o
 *fill*         0x200008ee        0x2 
 .bss           0x200008f0        0x4 ..\obj\syscalls.o
 .bss           0x200008f4        0x6 ..\obj\ff.o
 *fill*         0x200008fa        0x2 
 .bss.__malloc_max_total_mem
                0x200008fc        0x4 c:/program files (x86)/gnu tools arm embedded/5.4 2016q3/bin/../lib/gcc/arm-none-eabi/5.4.1/../../../../arm-none-eabi/lib/armv7e-m\libg.a(lib_a-mallocr.o)
                0x200008fc                __malloc_max_total_mem
 .bss.__malloc_max_sbrked_mem
                0x20000900        0x4 c:/program files (x86)/gnu tools arm embedded/5.4 2016q3/bin/../lib/gcc/arm-none-eabi/5.4.1/../../../../arm-none-eabi/lib/armv7e-m\libg.a(lib_a-mallocr.o)
                0x20000900                __malloc_max_sbrked_mem
 .bss.__malloc_top_pad
                0x20000904        0x4 c:/program files (x86)/gnu tools arm embedded/5.4 2016q3/bin/../lib/gcc/arm-none-eabi/5.4.1/../../../../arm-none-eabi/lib/armv7e-m\libg.a(lib_a-mallocr.o)
                0x20000904                __malloc_top_pad
 .bss.__malloc_current_mallinfo
                0x20000908       0x28 c:/program files (x86)/gnu tools arm embedded/5.4 2016q3/bin/../lib/gcc/arm-none-eabi/5.4.1/../../../../arm-none-eabi/lib/armv7e-m\libg.a(lib_a-mallocr.o)
                0x20000908                __malloc_current_mallinfo
 *(COMMON)
 COMMON         0x20000930        0x4 ..\obj\wyswietlacz.o
                0x20000930                funkcja
 COMMON         0x20000934     0x1458 ..\obj\main.o
                0x20000934                file
                0x20000b5c                sample_buffer
                0x20001b5c                fatfs
 COMMON         0x20001d8c        0x4 c:/program files (x86)/gnu tools arm embedded/5.4 2016q3/bin/../lib/gcc/arm-none-eabi/5.4.1/../../../../arm-none-eabi/lib/armv7e-m\libg.a(lib_a-reent.o)
                0x20001d8c                errno
                0x20001d90                . = ALIGN (0x4)
                0x20001d90                __bss_end__ = .
                0x20001d90                _ebss = __bss_end__

.heap           0x20001d90        0x0
                0x20001d90                __end__ = .
                0x20001d90                _end = __end__
                0x20001d90                end = __end__
 *(.heap*)
                0x20001d90                __HeapLimit = .

.co_stack       0x20001d90      0x800 load address 0x08009350
                0x20001d90                . = ALIGN (0x8)
 *(.co_stack .co_stack.*)
 .co_stack      0x20001d90      0x800 ..\obj\startup_stm32f4xx.o
                0x20001d90                pulStack
                0x20020000                __StackTop = (ORIGIN (ram) + LENGTH (ram))
                0x2001f800                __StackLimit = (__StackTop - SIZEOF (.co_stack))
                [!provide]                PROVIDE (__stack, __StackTop)
                0x00000001                ASSERT ((__StackLimit >= __HeapLimit), region ram  overflowed with stack)
LOAD ..\obj\stm32f4xx_syscfg.o
LOAD ..\obj\delay.o
LOAD ..\obj\wyswietlacz.o
LOAD ..\obj\funkcje.o
LOAD ..\obj\startup_stm32f4xx.o
LOAD ..\obj\main.o
LOAD ..\obj\stm32f4xx_rcc.o
LOAD ..\obj\codec.o
LOAD ..\obj\stm32f4xx_adc.o
LOAD ..\obj\spi_sd.o
LOAD ..\obj\stm32f4xx_gpio.o
LOAD ..\obj\system_stm32f4xx.o
LOAD ..\obj\syscalls.o
LOAD ..\obj\stm32f4xx_dma.o
LOAD ..\obj\ff.o
LOAD ..\obj\stm32f4xx_spi.o
LOAD ..\obj\stm32f4xx_i2c.o
LOAD ..\obj\stm32f4xx_rng.o
LOAD ..\obj\stm32f4xx_exti.o
LOAD ..\obj\misc.o
LOAD ..\obj\stm32f4xx_rtc.o
LOAD ..\obj\stm32f4xx_tim.o
START GROUP
LOAD c:/program files (x86)/gnu tools arm embedded/5.4 2016q3/bin/../lib/gcc/arm-none-eabi/5.4.1/armv7e-m\libgcc.a
LOAD c:/program files (x86)/gnu tools arm embedded/5.4 2016q3/bin/../lib/gcc/arm-none-eabi/5.4.1/../../../../arm-none-eabi/lib/armv7e-m\libg.a
LOAD c:/program files (x86)/gnu tools arm embedded/5.4 2016q3/bin/../lib/gcc/arm-none-eabi/5.4.1/../../../../arm-none-eabi/lib/armv7e-m\libc.a
END GROUP
OUTPUT(STMwavPlayerMR.elf elf32-littlearm)

.debug_info     0x00000000     0xccc4
 .debug_info    0x00000000      0x274 ..\obj\stm32f4xx_syscfg.o
 .debug_info    0x00000274      0x1b5 ..\obj\delay.o
 .debug_info    0x00000429      0x789 ..\obj\wyswietlacz.o
 .debug_info    0x00000bb2      0xb7a ..\obj\funkcje.o
 .debug_info    0x0000172c       0xf2 ..\obj\startup_stm32f4xx.o
 .debug_info    0x0000181e     0x18d7 ..\obj\main.o
 .debug_info    0x000030f5      0xc63 ..\obj\stm32f4xx_rcc.o
 .debug_info    0x00003d58      0x997 ..\obj\codec.o
 .debug_info    0x000046ef      0xc40 ..\obj\stm32f4xx_adc.o
 .debug_info    0x0000532f      0xb43 ..\obj\spi_sd.o
 .debug_info    0x00005e72      0x61a ..\obj\stm32f4xx_gpio.o
 .debug_info    0x0000648c      0x5c5 ..\obj\system_stm32f4xx.o
 .debug_info    0x00006a51      0x458 ..\obj\syscalls.o
 .debug_info    0x00006ea9      0x741 ..\obj\stm32f4xx_dma.o
 .debug_info    0x000075ea     0x192e ..\obj\ff.o
 .debug_info    0x00008f18      0xb0f ..\obj\stm32f4xx_spi.o
 .debug_info    0x00009a27      0xb00 ..\obj\stm32f4xx_i2c.o
 .debug_info    0x0000a527      0x287 ..\obj\stm32f4xx_rng.o
 .debug_info    0x0000a7ae      0x357 ..\obj\stm32f4xx_exti.o
 .debug_info    0x0000ab05      0x556 ..\obj\misc.o
 .debug_info    0x0000b05b     0x1c69 ..\obj\stm32f4xx_tim.o

.debug_abbrev   0x00000000     0x20f0
 .debug_abbrev  0x00000000      0x133 ..\obj\stm32f4xx_syscfg.o
 .debug_abbrev  0x00000133       0xed ..\obj\delay.o
 .debug_abbrev  0x00000220      0x1a1 ..\obj\wyswietlacz.o
 .debug_abbrev  0x000003c1      0x1a9 ..\obj\funkcje.o
 .debug_abbrev  0x0000056a       0xb0 ..\obj\startup_stm32f4xx.o
 .debug_abbrev  0x0000061a      0x33d ..\obj\main.o
 .debug_abbrev  0x00000957      0x1e5 ..\obj\stm32f4xx_rcc.o
 .debug_abbrev  0x00000b3c      0x239 ..\obj\codec.o
 .debug_abbrev  0x00000d75      0x198 ..\obj\stm32f4xx_adc.o
 .debug_abbrev  0x00000f0d      0x2a8 ..\obj\spi_sd.o
 .debug_abbrev  0x000011b5      0x1a7 ..\obj\stm32f4xx_gpio.o
 .debug_abbrev  0x0000135c      0x138 ..\obj\system_stm32f4xx.o
 .debug_abbrev  0x00001494       0xe5 ..\obj\syscalls.o
 .debug_abbrev  0x00001579      0x157 ..\obj\stm32f4xx_dma.o
 .debug_abbrev  0x000016d0      0x192 ..\obj\ff.o
 .debug_abbrev  0x00001862      0x169 ..\obj\stm32f4xx_spi.o
 .debug_abbrev  0x000019cb      0x166 ..\obj\stm32f4xx_i2c.o
 .debug_abbrev  0x00001b31      0x146 ..\obj\stm32f4xx_rng.o
 .debug_abbrev  0x00001c77      0x1a9 ..\obj\stm32f4xx_exti.o
 .debug_abbrev  0x00001e20      0x147 ..\obj\misc.o
 .debug_abbrev  0x00001f67      0x189 ..\obj\stm32f4xx_tim.o

.debug_aranges  0x00000000      0xf20
 .debug_aranges
                0x00000000       0x48 ..\obj\stm32f4xx_syscfg.o
 .debug_aranges
                0x00000048       0x30 ..\obj\delay.o
 .debug_aranges
                0x00000078       0x40 ..\obj\wyswietlacz.o
 .debug_aranges
                0x000000b8       0x60 ..\obj\funkcje.o
 .debug_aranges
                0x00000118       0x28 ..\obj\startup_stm32f4xx.o
 .debug_aranges
                0x00000140       0xb8 ..\obj\main.o
 .debug_aranges
                0x000001f8      0x178 ..\obj\stm32f4xx_rcc.o
 .debug_aranges
                0x00000370       0x68 ..\obj\codec.o
 .debug_aranges
                0x000003d8      0x148 ..\obj\stm32f4xx_adc.o
 .debug_aranges
                0x00000520       0xb8 ..\obj\spi_sd.o
 .debug_aranges
                0x000005d8       0x88 ..\obj\stm32f4xx_gpio.o
 .debug_aranges
                0x00000660       0x30 ..\obj\system_stm32f4xx.o
 .debug_aranges
                0x00000690       0x60 ..\obj\syscalls.o
 .debug_aranges
                0x000006f0       0xb0 ..\obj\stm32f4xx_dma.o
 .debug_aranges
                0x000007a0      0x198 ..\obj\ff.o
 .debug_aranges
                0x00000938       0xe0 ..\obj\stm32f4xx_spi.o
 .debug_aranges
                0x00000a18      0x120 ..\obj\stm32f4xx_i2c.o
 .debug_aranges
                0x00000b38       0x58 ..\obj\stm32f4xx_rng.o
 .debug_aranges
                0x00000b90       0x58 ..\obj\stm32f4xx_exti.o
 .debug_aranges
                0x00000be8       0x40 ..\obj\misc.o
 .debug_aranges
                0x00000c28      0x2f8 ..\obj\stm32f4xx_tim.o

.debug_ranges   0x00000000      0xdd0
 .debug_ranges  0x00000000       0x38 ..\obj\stm32f4xx_syscfg.o
 .debug_ranges  0x00000038       0x20 ..\obj\delay.o
 .debug_ranges  0x00000058       0x30 ..\obj\wyswietlacz.o
 .debug_ranges  0x00000088       0x50 ..\obj\funkcje.o
 .debug_ranges  0x000000d8       0x18 ..\obj\startup_stm32f4xx.o
 .debug_ranges  0x000000f0       0xa8 ..\obj\main.o
 .debug_ranges  0x00000198      0x168 ..\obj\stm32f4xx_rcc.o
 .debug_ranges  0x00000300       0x58 ..\obj\codec.o
 .debug_ranges  0x00000358      0x138 ..\obj\stm32f4xx_adc.o
 .debug_ranges  0x00000490       0xa8 ..\obj\spi_sd.o
 .debug_ranges  0x00000538       0x78 ..\obj\stm32f4xx_gpio.o
 .debug_ranges  0x000005b0       0x20 ..\obj\system_stm32f4xx.o
 .debug_ranges  0x000005d0       0x50 ..\obj\syscalls.o
 .debug_ranges  0x00000620       0xa0 ..\obj\stm32f4xx_dma.o
 .debug_ranges  0x000006c0      0x188 ..\obj\ff.o
 .debug_ranges  0x00000848       0xd0 ..\obj\stm32f4xx_spi.o
 .debug_ranges  0x00000918      0x110 ..\obj\stm32f4xx_i2c.o
 .debug_ranges  0x00000a28       0x48 ..\obj\stm32f4xx_rng.o
 .debug_ranges  0x00000a70       0x48 ..\obj\stm32f4xx_exti.o
 .debug_ranges  0x00000ab8       0x30 ..\obj\misc.o
 .debug_ranges  0x00000ae8      0x2e8 ..\obj\stm32f4xx_tim.o

.debug_line     0x00000000     0x633f
 .debug_line    0x00000000      0x285 ..\obj\stm32f4xx_syscfg.o
 .debug_line    0x00000285      0x1dc ..\obj\delay.o
 .debug_line    0x00000461      0x307 ..\obj\wyswietlacz.o
 .debug_line    0x00000768      0x3af ..\obj\funkcje.o
 .debug_line    0x00000b17       0xbf ..\obj\startup_stm32f4xx.o
 .debug_line    0x00000bd6      0x62c ..\obj\main.o
 .debug_line    0x00001202      0x63d ..\obj\stm32f4xx_rcc.o
 .debug_line    0x0000183f      0x503 ..\obj\codec.o
 .debug_line    0x00001d42      0x5f5 ..\obj\stm32f4xx_adc.o
 .debug_line    0x00002337      0x6b9 ..\obj\spi_sd.o
 .debug_line    0x000029f0      0x3f8 ..\obj\stm32f4xx_gpio.o
 .debug_line    0x00002de8      0x23e ..\obj\system_stm32f4xx.o
 .debug_line    0x00003026      0x20f ..\obj\syscalls.o
 .debug_line    0x00003235      0x4c2 ..\obj\stm32f4xx_dma.o
 .debug_line    0x000036f7      0xdc1 ..\obj\ff.o
 .debug_line    0x000044b8      0x4f1 ..\obj\stm32f4xx_spi.o
 .debug_line    0x000049a9      0x583 ..\obj\stm32f4xx_i2c.o
 .debug_line    0x00004f2c      0x2ab ..\obj\stm32f4xx_rng.o
 .debug_line    0x000051d7      0x339 ..\obj\stm32f4xx_exti.o
 .debug_line    0x00005510      0x2d6 ..\obj\misc.o
 .debug_line    0x000057e6      0xb59 ..\obj\stm32f4xx_tim.o

.debug_str      0x00000000     0x45f2
 .debug_str     0x00000000      0x2b4 ..\obj\stm32f4xx_syscfg.o
                                0x312 (size before relaxing)
 .debug_str     0x000002b4       0x9f ..\obj\delay.o
                                0x1fd (size before relaxing)
 .debug_str     0x00000353      0x723 ..\obj\wyswietlacz.o
                                0x89a (size before relaxing)
 .debug_str     0x00000a76      0x649 ..\obj\funkcje.o
                                0x932 (size before relaxing)
 .debug_str     0x000010bf       0xce ..\obj\startup_stm32f4xx.o
                                0x165 (size before relaxing)
 .debug_str     0x0000118d      0x76e ..\obj\main.o
                               0x13dd (size before relaxing)
 .debug_str     0x000018fb      0x654 ..\obj\stm32f4xx_rcc.o
                                0x86e (size before relaxing)
 .debug_str     0x00001f4f      0x2e1 ..\obj\codec.o
                                0x6fe (size before relaxing)
 .debug_str     0x00002230      0x504 ..\obj\stm32f4xx_adc.o
                                0x822 (size before relaxing)
 .debug_str     0x00002734      0x21a ..\obj\spi_sd.o
                                0x6c3 (size before relaxing)
 .debug_str     0x0000294e      0x19f ..\obj\stm32f4xx_gpio.o
                                0x4c1 (size before relaxing)
 .debug_str     0x00002aed       0xe2 ..\obj\system_stm32f4xx.o
                                0x3c8 (size before relaxing)
 .debug_str     0x00002bcf      0x18b ..\obj\syscalls.o
                                0x379 (size before relaxing)
 .debug_str     0x00002d5a      0x276 ..\obj\stm32f4xx_dma.o
                                0x560 (size before relaxing)
 .debug_str     0x00002fd0      0x2b6 ..\obj\ff.o
                                0x63e (size before relaxing)
 .debug_str     0x00003286      0x2b9 ..\obj\stm32f4xx_spi.o
                                0x6a8 (size before relaxing)
 .debug_str     0x0000353f      0x35e ..\obj\stm32f4xx_i2c.o
                                0x683 (size before relaxing)
 .debug_str     0x0000389d       0xfd ..\obj\stm32f4xx_rng.o
                                0x297 (size before relaxing)
 .debug_str     0x0000399a      0x11e ..\obj\stm32f4xx_exti.o
                                0x377 (size before relaxing)
 .debug_str     0x00003ab8      0x12a ..\obj\misc.o
                                0x3ec (size before relaxing)
 .debug_str     0x00003be2      0xa10 ..\obj\stm32f4xx_tim.o
                                0xdee (size before relaxing)

.comment        0x00000000       0x6e
 .comment       0x00000000       0x6e ..\obj\stm32f4xx_syscfg.o
                                 0x6f (size before relaxing)
 .comment       0x0000006e       0x6f ..\obj\delay.o
 .comment       0x0000006e       0x6f ..\obj\wyswietlacz.o
 .comment       0x0000006e       0x6f ..\obj\funkcje.o
 .comment       0x0000006e       0x6f ..\obj\startup_stm32f4xx.o
 .comment       0x0000006e       0x6f ..\obj\main.o
 .comment       0x0000006e       0x6f ..\obj\stm32f4xx_rcc.o
 .comment       0x0000006e       0x6f ..\obj\codec.o
 .comment       0x0000006e       0x6f ..\obj\stm32f4xx_adc.o
 .comment       0x0000006e       0x6f ..\obj\spi_sd.o
 .comment       0x0000006e       0x6f ..\obj\stm32f4xx_gpio.o
 .comment       0x0000006e       0x6f ..\obj\system_stm32f4xx.o
 .comment       0x0000006e       0x6f ..\obj\syscalls.o
 .comment       0x0000006e       0x6f ..\obj\stm32f4xx_dma.o
 .comment       0x0000006e       0x6f ..\obj\ff.o
 .comment       0x0000006e       0x6f ..\obj\stm32f4xx_spi.o
 .comment       0x0000006e       0x6f ..\obj\stm32f4xx_i2c.o
 .comment       0x0000006e       0x6f ..\obj\stm32f4xx_rng.o
 .comment       0x0000006e       0x6f ..\obj\stm32f4xx_exti.o
 .comment       0x0000006e       0x6f ..\obj\misc.o
 .comment       0x0000006e       0x6f ..\obj\stm32f4xx_tim.o

.ARM.attributes
                0x00000000       0x33
 .ARM.attributes
                0x00000000       0x33 ..\obj\stm32f4xx_syscfg.o
 .ARM.attributes
                0x00000033       0x33 ..\obj\delay.o
 .ARM.attributes
                0x00000066       0x33 ..\obj\wyswietlacz.o
 .ARM.attributes
                0x00000099       0x33 ..\obj\funkcje.o
 .ARM.attributes
                0x000000cc       0x33 ..\obj\startup_stm32f4xx.o
 .ARM.attributes
                0x000000ff       0x33 ..\obj\main.o
 .ARM.attributes
                0x00000132       0x33 ..\obj\stm32f4xx_rcc.o
 .ARM.attributes
                0x00000165       0x33 ..\obj\codec.o
 .ARM.attributes
                0x00000198       0x33 ..\obj\stm32f4xx_adc.o
 .ARM.attributes
                0x000001cb       0x33 ..\obj\spi_sd.o
 .ARM.attributes
                0x000001fe       0x33 ..\obj\stm32f4xx_gpio.o
 .ARM.attributes
                0x00000231       0x33 ..\obj\system_stm32f4xx.o
 .ARM.attributes
                0x00000264       0x33 ..\obj\syscalls.o
 .ARM.attributes
                0x00000297       0x33 ..\obj\stm32f4xx_dma.o
 .ARM.attributes
                0x000002ca       0x33 ..\obj\ff.o
 .ARM.attributes
                0x000002fd       0x33 ..\obj\stm32f4xx_spi.o
 .ARM.attributes
                0x00000330       0x33 ..\obj\stm32f4xx_i2c.o
 .ARM.attributes
                0x00000363       0x33 ..\obj\stm32f4xx_rng.o
 .ARM.attributes
                0x00000396       0x33 ..\obj\stm32f4xx_exti.o
 .ARM.attributes
                0x000003c9       0x33 ..\obj\misc.o
 .ARM.attributes
                0x000003fc       0x33 ..\obj\stm32f4xx_tim.o
 .ARM.attributes
                0x0000042f       0x1e c:/program files (x86)/gnu tools arm embedded/5.4 2016q3/bin/../lib/gcc/arm-none-eabi/5.4.1/armv7e-m\libgcc.a(_arm_addsubdf3.o)
 .ARM.attributes
                0x0000044d       0x1e c:/program files (x86)/gnu tools arm embedded/5.4 2016q3/bin/../lib/gcc/arm-none-eabi/5.4.1/armv7e-m\libgcc.a(_arm_muldivdf3.o)
 .ARM.attributes
                0x0000046b       0x1e c:/program files (x86)/gnu tools arm embedded/5.4 2016q3/bin/../lib/gcc/arm-none-eabi/5.4.1/armv7e-m\libgcc.a(_arm_cmpdf2.o)
 .ARM.attributes
                0x00000489       0x1e c:/program files (x86)/gnu tools arm embedded/5.4 2016q3/bin/../lib/gcc/arm-none-eabi/5.4.1/armv7e-m\libgcc.a(_arm_fixdfsi.o)
 .ARM.attributes
                0x000004a7       0x1e c:/program files (x86)/gnu tools arm embedded/5.4 2016q3/bin/../lib/gcc/arm-none-eabi/5.4.1/armv7e-m\libgcc.a(_arm_truncdfsf2.o)
 .ARM.attributes
                0x000004c5       0x1e c:/program files (x86)/gnu tools arm embedded/5.4 2016q3/bin/../lib/gcc/arm-none-eabi/5.4.1/armv7e-m\libgcc.a(_arm_cmpsf2.o)
 .ARM.attributes
                0x000004e3       0x2e c:/program files (x86)/gnu tools arm embedded/5.4 2016q3/bin/../lib/gcc/arm-none-eabi/5.4.1/../../../../arm-none-eabi/lib/armv7e-m\libg.a(lib_a-malloc.o)
 .ARM.attributes
                0x00000511       0x2e c:/program files (x86)/gnu tools arm embedded/5.4 2016q3/bin/../lib/gcc/arm-none-eabi/5.4.1/../../../../arm-none-eabi/lib/armv7e-m\libg.a(lib_a-mallocr.o)
 .ARM.attributes
                0x0000053f       0x2e c:/program files (x86)/gnu tools arm embedded/5.4 2016q3/bin/../lib/gcc/arm-none-eabi/5.4.1/../../../../arm-none-eabi/lib/armv7e-m\libg.a(lib_a-mlock.o)
 .ARM.attributes
                0x0000056d       0x2e c:/program files (x86)/gnu tools arm embedded/5.4 2016q3/bin/../lib/gcc/arm-none-eabi/5.4.1/../../../../arm-none-eabi/lib/armv7e-m\libg.a(lib_a-sbrkr.o)
 .ARM.attributes
                0x0000059b       0x2e c:/program files (x86)/gnu tools arm embedded/5.4 2016q3/bin/../lib/gcc/arm-none-eabi/5.4.1/../../../../arm-none-eabi/lib/armv7e-m\libg.a(lib_a-freer.o)
 .ARM.attributes
                0x000005c9       0x2e c:/program files (x86)/gnu tools arm embedded/5.4 2016q3/bin/../lib/gcc/arm-none-eabi/5.4.1/../../../../arm-none-eabi/lib/armv7e-m\libg.a(lib_a-impure.o)
 .ARM.attributes
                0x000005f7       0x2e c:/program files (x86)/gnu tools arm embedded/5.4 2016q3/bin/../lib/gcc/arm-none-eabi/5.4.1/../../../../arm-none-eabi/lib/armv7e-m\libg.a(lib_a-reent.o)

.debug_frame    0x00000000     0x427c
 .debug_frame   0x00000000       0xf4 ..\obj\stm32f4xx_syscfg.o
 .debug_frame   0x000000f4       0x84 ..\obj\delay.o
 .debug_frame   0x00000178       0xbc ..\obj\wyswietlacz.o
 .debug_frame   0x00000234      0x158 ..\obj\funkcje.o
 .debug_frame   0x0000038c       0x4c ..\obj\startup_stm32f4xx.o
 .debug_frame   0x000003d8      0x2c0 ..\obj\main.o
 .debug_frame   0x00000698      0x6d4 ..\obj\stm32f4xx_rcc.o
 .debug_frame   0x00000d6c      0x17c ..\obj\codec.o
 .debug_frame   0x00000ee8      0x5ec ..\obj\stm32f4xx_adc.o
 .debug_frame   0x000014d4      0x2e4 ..\obj\spi_sd.o
 .debug_frame   0x000017b8      0x23c ..\obj\stm32f4xx_gpio.o
 .debug_frame   0x000019f4       0x7c ..\obj\system_stm32f4xx.o
 .debug_frame   0x00001a70      0x168 ..\obj\syscalls.o
 .debug_frame   0x00001bd8      0x308 ..\obj\stm32f4xx_dma.o
 .debug_frame   0x00001ee0      0x718 ..\obj\ff.o
 .debug_frame   0x000025f8      0x3f4 ..\obj\stm32f4xx_spi.o
 .debug_frame   0x000029ec      0x530 ..\obj\stm32f4xx_i2c.o
 .debug_frame   0x00002f1c      0x13c ..\obj\stm32f4xx_rng.o
 .debug_frame   0x00003058      0x148 ..\obj\stm32f4xx_exti.o
 .debug_frame   0x000031a0       0xd8 ..\obj\misc.o
 .debug_frame   0x00003278      0xe54 ..\obj\stm32f4xx_tim.o
 .debug_frame   0x000040cc       0x30 c:/program files (x86)/gnu tools arm embedded/5.4 2016q3/bin/../lib/gcc/arm-none-eabi/5.4.1/../../../../arm-none-eabi/lib/armv7e-m\libg.a(lib_a-malloc.o)
 .debug_frame   0x000040fc       0x58 c:/program files (x86)/gnu tools arm embedded/5.4 2016q3/bin/../lib/gcc/arm-none-eabi/5.4.1/../../../../arm-none-eabi/lib/armv7e-m\libg.a(lib_a-mallocr.o)
 .debug_frame   0x00004154       0x30 c:/program files (x86)/gnu tools arm embedded/5.4 2016q3/bin/../lib/gcc/arm-none-eabi/5.4.1/../../../../arm-none-eabi/lib/armv7e-m\libg.a(lib_a-mlock.o)
 .debug_frame   0x00004184       0x2c c:/program files (x86)/gnu tools arm embedded/5.4 2016q3/bin/../lib/gcc/arm-none-eabi/5.4.1/../../../../arm-none-eabi/lib/armv7e-m\libg.a(lib_a-sbrkr.o)
 .debug_frame   0x000041b0       0x74 c:/program files (x86)/gnu tools arm embedded/5.4 2016q3/bin/../lib/gcc/arm-none-eabi/5.4.1/../../../../arm-none-eabi/lib/armv7e-m\libg.a(lib_a-freer.o)
 .debug_frame   0x00004224       0x58 c:/program files (x86)/gnu tools arm embedded/5.4 2016q3/bin/../lib/gcc/arm-none-eabi/5.4.1/../../../../arm-none-eabi/lib/armv7e-m\libg.a(lib_a-reent.o)
